ARM GAS  C:\Users\pc\AppData\Local\Temp\ccv6eqSb.s 			page 1


   1              		.cpu cortex-m4
   2              		.arch armv7e-m
   3              		.fpu fpv4-sp-d16
   4              		.eabi_attribute 27, 1
   5              		.eabi_attribute 28, 1
   6              		.eabi_attribute 20, 1
   7              		.eabi_attribute 21, 1
   8              		.eabi_attribute 23, 3
   9              		.eabi_attribute 24, 1
  10              		.eabi_attribute 25, 1
  11              		.eabi_attribute 26, 1
  12              		.eabi_attribute 30, 1
  13              		.eabi_attribute 34, 1
  14              		.eabi_attribute 18, 4
  15              		.file	"bmp180_for_stm32_hal.c"
  16              		.text
  17              	.Ltext0:
  18              		.cfi_sections	.debug_frame
  19              		.file 1 "Core/Src/bmp180_for_stm32_hal.c"
  20              		.section	.text.BMP180_Init,"ax",%progbits
  21              		.align	1
  22              		.global	BMP180_Init
  23              		.syntax unified
  24              		.thumb
  25              		.thumb_func
  27              	BMP180_Init:
  28              	.LVL0:
  29              	.LFB130:
   1:Core/Src/bmp180_for_stm32_hal.c **** /* An STM32 HAL library written for the BMP180 temperature/pressure sensor. */
   2:Core/Src/bmp180_for_stm32_hal.c **** /* Libraries by @eepj www.github.com/eepj */
   3:Core/Src/bmp180_for_stm32_hal.c **** #include "bmp180_for_stm32_hal.h"
   4:Core/Src/bmp180_for_stm32_hal.c **** #include "main.h"
   5:Core/Src/bmp180_for_stm32_hal.c **** 
   6:Core/Src/bmp180_for_stm32_hal.c **** #ifdef __cplusplus
   7:Core/Src/bmp180_for_stm32_hal.c **** extern "C"{
   8:Core/Src/bmp180_for_stm32_hal.c **** #endif
   9:Core/Src/bmp180_for_stm32_hal.c **** 
  10:Core/Src/bmp180_for_stm32_hal.c **** I2C_HandleTypeDef *_bmp180_ui2c;
  11:Core/Src/bmp180_for_stm32_hal.c **** BMP180_EEPROM _bmp180_eeprom;
  12:Core/Src/bmp180_for_stm32_hal.c **** BMP180_OSS _bmp180_oss;
  13:Core/Src/bmp180_for_stm32_hal.c **** 
  14:Core/Src/bmp180_for_stm32_hal.c **** const uint8_t BMP180_EEPROM_ADDR_MSB[11] = { 0xaa, 0xac, 0xae, 0xb0, 0xb2, 0xb4, 0xb6, 0xb8, 0xba, 
  15:Core/Src/bmp180_for_stm32_hal.c **** const uint8_t BMP180_EEPROM_ADDR_LSB[11] = { 0xab, 0xad, 0xaf, 0xb1, 0xb3, 0xb5, 0xb7, 0xb9, 0xbb, 
  16:Core/Src/bmp180_for_stm32_hal.c **** 
  17:Core/Src/bmp180_for_stm32_hal.c **** const uint8_t BMP180_CMD_TEMP = 0x2e;
  18:Core/Src/bmp180_for_stm32_hal.c **** const uint8_t BMP180_DELAY_TEMP = 5;
  19:Core/Src/bmp180_for_stm32_hal.c **** const uint8_t BMP180_CMD_PRES[4] = { 0x34, 0x74, 0xb4, 0xf4 };
  20:Core/Src/bmp180_for_stm32_hal.c **** const uint8_t BMP180_DELAY_PRES[4] = { 5, 8, 14, 26 };
  21:Core/Src/bmp180_for_stm32_hal.c **** 
  22:Core/Src/bmp180_for_stm32_hal.c **** /**
  23:Core/Src/bmp180_for_stm32_hal.c ****  * @brief Initializes the BMP180 temperature/pressure sensor.
  24:Core/Src/bmp180_for_stm32_hal.c ****  * @param hi2c User I2C handle pointer.
  25:Core/Src/bmp180_for_stm32_hal.c ****  */
  26:Core/Src/bmp180_for_stm32_hal.c **** void BMP180_Init(I2C_HandleTypeDef *hi2c) {
  30              		.loc 1 26 43 view -0
  31              		.cfi_startproc
  32              		@ args = 0, pretend = 0, frame = 0
ARM GAS  C:\Users\pc\AppData\Local\Temp\ccv6eqSb.s 			page 2


  33              		@ frame_needed = 0, uses_anonymous_args = 0
  34              		@ link register save eliminated.
  27:Core/Src/bmp180_for_stm32_hal.c **** 	_bmp180_ui2c = hi2c;
  35              		.loc 1 27 2 view .LVU1
  36              		.loc 1 27 15 is_stmt 0 view .LVU2
  37 0000 014B     		ldr	r3, .L2
  38 0002 1860     		str	r0, [r3]
  28:Core/Src/bmp180_for_stm32_hal.c **** }
  39              		.loc 1 28 1 view .LVU3
  40 0004 7047     		bx	lr
  41              	.L3:
  42 0006 00BF     		.align	2
  43              	.L2:
  44 0008 00000000 		.word	_bmp180_ui2c
  45              		.cfi_endproc
  46              	.LFE130:
  48              		.section	.text.BMP180_SetOversampling,"ax",%progbits
  49              		.align	1
  50              		.global	BMP180_SetOversampling
  51              		.syntax unified
  52              		.thumb
  53              		.thumb_func
  55              	BMP180_SetOversampling:
  56              	.LVL1:
  57              	.LFB131:
  29:Core/Src/bmp180_for_stm32_hal.c **** 
  30:Core/Src/bmp180_for_stm32_hal.c **** /**
  31:Core/Src/bmp180_for_stm32_hal.c ****  * @param oss Enum, oversampling setting.
  32:Core/Src/bmp180_for_stm32_hal.c ****  * @note Available resolutions: BMP180_LOW, BMP180_STANDARD, BMP180_HIGH, BMP180_ULTRA.
  33:Core/Src/bmp180_for_stm32_hal.c ****  * @note Refer to section 3.3.1 of datasheet.
  34:Core/Src/bmp180_for_stm32_hal.c ****  */
  35:Core/Src/bmp180_for_stm32_hal.c **** void BMP180_SetOversampling(BMP180_OSS oss) {
  58              		.loc 1 35 45 is_stmt 1 view -0
  59              		.cfi_startproc
  60              		@ args = 0, pretend = 0, frame = 0
  61              		@ frame_needed = 0, uses_anonymous_args = 0
  62              		@ link register save eliminated.
  36:Core/Src/bmp180_for_stm32_hal.c **** 	_bmp180_oss = oss;
  63              		.loc 1 36 2 view .LVU5
  64              		.loc 1 36 14 is_stmt 0 view .LVU6
  65 0000 014B     		ldr	r3, .L5
  66 0002 1870     		strb	r0, [r3]
  37:Core/Src/bmp180_for_stm32_hal.c **** }
  67              		.loc 1 37 1 view .LVU7
  68 0004 7047     		bx	lr
  69              	.L6:
  70 0006 00BF     		.align	2
  71              	.L5:
  72 0008 00000000 		.word	_bmp180_oss
  73              		.cfi_endproc
  74              	.LFE131:
  76              		.section	.text.BMP180_WriteReg,"ax",%progbits
  77              		.align	1
  78              		.global	BMP180_WriteReg
  79              		.syntax unified
  80              		.thumb
  81              		.thumb_func
ARM GAS  C:\Users\pc\AppData\Local\Temp\ccv6eqSb.s 			page 3


  83              	BMP180_WriteReg:
  84              	.LVL2:
  85              	.LFB133:
  38:Core/Src/bmp180_for_stm32_hal.c **** 
  39:Core/Src/bmp180_for_stm32_hal.c **** /**
  40:Core/Src/bmp180_for_stm32_hal.c ****  * @brief Updates calibration data.
  41:Core/Src/bmp180_for_stm32_hal.c ****  * @note Must be called once before main loop.
  42:Core/Src/bmp180_for_stm32_hal.c ****  */
  43:Core/Src/bmp180_for_stm32_hal.c **** void BMP180_UpdateCalibrationData(void) {
  44:Core/Src/bmp180_for_stm32_hal.c **** 	_bmp180_eeprom.BMP180_AC1 = (BMP180_ReadReg(BMP180_EEPROM_ADDR_MSB[BMP180_INDEX_AC1]) << 8) | BMP1
  45:Core/Src/bmp180_for_stm32_hal.c **** 	_bmp180_eeprom.BMP180_AC2 = (BMP180_ReadReg(BMP180_EEPROM_ADDR_MSB[BMP180_INDEX_AC2]) << 8) | BMP1
  46:Core/Src/bmp180_for_stm32_hal.c **** 	_bmp180_eeprom.BMP180_AC3 = (BMP180_ReadReg(BMP180_EEPROM_ADDR_MSB[BMP180_INDEX_AC3]) << 8) | BMP1
  47:Core/Src/bmp180_for_stm32_hal.c **** 	_bmp180_eeprom.BMP180_AC4 = (BMP180_ReadReg(BMP180_EEPROM_ADDR_MSB[BMP180_INDEX_AC4]) << 8) | BMP1
  48:Core/Src/bmp180_for_stm32_hal.c **** 	_bmp180_eeprom.BMP180_AC5 = (BMP180_ReadReg(BMP180_EEPROM_ADDR_MSB[BMP180_INDEX_AC5]) << 8) | BMP1
  49:Core/Src/bmp180_for_stm32_hal.c **** 	_bmp180_eeprom.BMP180_AC6 = (BMP180_ReadReg(BMP180_EEPROM_ADDR_MSB[BMP180_INDEX_AC6]) << 8) | BMP1
  50:Core/Src/bmp180_for_stm32_hal.c **** 	_bmp180_eeprom.BMP180_B1 = (BMP180_ReadReg(BMP180_EEPROM_ADDR_MSB[BMP180_INDEX_B1]) << 8) | BMP180
  51:Core/Src/bmp180_for_stm32_hal.c **** 	_bmp180_eeprom.BMP180_B2 = (BMP180_ReadReg(BMP180_EEPROM_ADDR_MSB[BMP180_INDEX_B2]) << 8) | BMP180
  52:Core/Src/bmp180_for_stm32_hal.c **** 	_bmp180_eeprom.BMP180_MB = (BMP180_ReadReg(BMP180_EEPROM_ADDR_MSB[BMP180_INDEX_MB]) << 8) | BMP180
  53:Core/Src/bmp180_for_stm32_hal.c **** 	_bmp180_eeprom.BMP180_MC = (BMP180_ReadReg(BMP180_EEPROM_ADDR_MSB[BMP180_INDEX_MC]) << 8) | BMP180
  54:Core/Src/bmp180_for_stm32_hal.c **** 	_bmp180_eeprom.BMP180_MD = (BMP180_ReadReg(BMP180_EEPROM_ADDR_MSB[BMP180_INDEX_MD]) << 8) | BMP180
  55:Core/Src/bmp180_for_stm32_hal.c **** }
  56:Core/Src/bmp180_for_stm32_hal.c **** 
  57:Core/Src/bmp180_for_stm32_hal.c **** /**
  58:Core/Src/bmp180_for_stm32_hal.c ****  * @brief Writes to a specific register.
  59:Core/Src/bmp180_for_stm32_hal.c ****  * @param reg Address of register to write to.
  60:Core/Src/bmp180_for_stm32_hal.c ****  * @param cmd Byte to write.
  61:Core/Src/bmp180_for_stm32_hal.c ****  */
  62:Core/Src/bmp180_for_stm32_hal.c **** void BMP180_WriteReg(uint8_t reg, uint8_t cmd) {
  86              		.loc 1 62 48 is_stmt 1 view -0
  87              		.cfi_startproc
  88              		@ args = 0, pretend = 0, frame = 8
  89              		@ frame_needed = 0, uses_anonymous_args = 0
  90              		.loc 1 62 48 is_stmt 0 view .LVU9
  91 0000 00B5     		push	{lr}
  92              		.cfi_def_cfa_offset 4
  93              		.cfi_offset 14, -4
  94 0002 85B0     		sub	sp, sp, #20
  95              		.cfi_def_cfa_offset 24
  63:Core/Src/bmp180_for_stm32_hal.c **** 	uint8_t arr[2] = { reg, cmd };
  96              		.loc 1 63 2 is_stmt 1 view .LVU10
  97              		.loc 1 63 10 is_stmt 0 view .LVU11
  98 0004 8DF80C00 		strb	r0, [sp, #12]
  99 0008 8DF80D10 		strb	r1, [sp, #13]
  64:Core/Src/bmp180_for_stm32_hal.c **** 	HAL_I2C_Master_Transmit(_bmp180_ui2c, BMP180_I2C_ADDR << 1, arr, 2, BMP180_I2C_TIMEOUT);
 100              		.loc 1 64 2 is_stmt 1 view .LVU12
 101 000c 4FF47A73 		mov	r3, #1000
 102 0010 0093     		str	r3, [sp]
 103 0012 0223     		movs	r3, #2
 104 0014 03AA     		add	r2, sp, #12
 105 0016 EE21     		movs	r1, #238
 106              	.LVL3:
 107              		.loc 1 64 2 is_stmt 0 view .LVU13
 108 0018 0348     		ldr	r0, .L9
 109              	.LVL4:
 110              		.loc 1 64 2 view .LVU14
 111 001a 0068     		ldr	r0, [r0]
 112 001c FFF7FEFF 		bl	HAL_I2C_Master_Transmit
ARM GAS  C:\Users\pc\AppData\Local\Temp\ccv6eqSb.s 			page 4


 113              	.LVL5:
  65:Core/Src/bmp180_for_stm32_hal.c **** }
 114              		.loc 1 65 1 view .LVU15
 115 0020 05B0     		add	sp, sp, #20
 116              		.cfi_def_cfa_offset 4
 117              		@ sp needed
 118 0022 5DF804FB 		ldr	pc, [sp], #4
 119              	.L10:
 120 0026 00BF     		.align	2
 121              	.L9:
 122 0028 00000000 		.word	_bmp180_ui2c
 123              		.cfi_endproc
 124              	.LFE133:
 126              		.section	.text.BMP180_ReadReg,"ax",%progbits
 127              		.align	1
 128              		.global	BMP180_ReadReg
 129              		.syntax unified
 130              		.thumb
 131              		.thumb_func
 133              	BMP180_ReadReg:
 134              	.LVL6:
 135              	.LFB134:
  66:Core/Src/bmp180_for_stm32_hal.c **** 
  67:Core/Src/bmp180_for_stm32_hal.c **** /**
  68:Core/Src/bmp180_for_stm32_hal.c ****  * @brief Reads from a specific register.
  69:Core/Src/bmp180_for_stm32_hal.c ****  * @param reg Address of register to read from.
  70:Core/Src/bmp180_for_stm32_hal.c ****  * @return Byte read.
  71:Core/Src/bmp180_for_stm32_hal.c ****  */
  72:Core/Src/bmp180_for_stm32_hal.c **** uint8_t BMP180_ReadReg(uint8_t reg) {
 136              		.loc 1 72 37 is_stmt 1 view -0
 137              		.cfi_startproc
 138              		@ args = 0, pretend = 0, frame = 16
 139              		@ frame_needed = 0, uses_anonymous_args = 0
 140              		.loc 1 72 37 is_stmt 0 view .LVU17
 141 0000 30B5     		push	{r4, r5, lr}
 142              		.cfi_def_cfa_offset 12
 143              		.cfi_offset 4, -12
 144              		.cfi_offset 5, -8
 145              		.cfi_offset 14, -4
 146 0002 87B0     		sub	sp, sp, #28
 147              		.cfi_def_cfa_offset 40
 148 0004 8DF80F00 		strb	r0, [sp, #15]
  73:Core/Src/bmp180_for_stm32_hal.c **** 	HAL_I2C_Master_Transmit(_bmp180_ui2c, BMP180_I2C_ADDR << 1, &reg, 1, BMP180_I2C_TIMEOUT);
 149              		.loc 1 73 2 is_stmt 1 view .LVU18
 150 0008 0B4C     		ldr	r4, .L13
 151 000a 4FF47A75 		mov	r5, #1000
 152 000e 0095     		str	r5, [sp]
 153 0010 0123     		movs	r3, #1
 154 0012 0DF10F02 		add	r2, sp, #15
 155 0016 EE21     		movs	r1, #238
 156 0018 2068     		ldr	r0, [r4]
 157              	.LVL7:
 158              		.loc 1 73 2 is_stmt 0 view .LVU19
 159 001a FFF7FEFF 		bl	HAL_I2C_Master_Transmit
 160              	.LVL8:
  74:Core/Src/bmp180_for_stm32_hal.c **** 	uint8_t result;
 161              		.loc 1 74 2 is_stmt 1 view .LVU20
ARM GAS  C:\Users\pc\AppData\Local\Temp\ccv6eqSb.s 			page 5


  75:Core/Src/bmp180_for_stm32_hal.c **** 	HAL_I2C_Master_Receive(_bmp180_ui2c, BMP180_I2C_ADDR << 1, &result, 1, BMP180_I2C_TIMEOUT);
 162              		.loc 1 75 2 view .LVU21
 163 001e 0095     		str	r5, [sp]
 164 0020 0123     		movs	r3, #1
 165 0022 0DF11702 		add	r2, sp, #23
 166 0026 EE21     		movs	r1, #238
 167 0028 2068     		ldr	r0, [r4]
 168 002a FFF7FEFF 		bl	HAL_I2C_Master_Receive
 169              	.LVL9:
  76:Core/Src/bmp180_for_stm32_hal.c **** 	return result;
 170              		.loc 1 76 2 view .LVU22
  77:Core/Src/bmp180_for_stm32_hal.c **** }
 171              		.loc 1 77 1 is_stmt 0 view .LVU23
 172 002e 9DF81700 		ldrb	r0, [sp, #23]	@ zero_extendqisi2
 173 0032 07B0     		add	sp, sp, #28
 174              		.cfi_def_cfa_offset 12
 175              		@ sp needed
 176 0034 30BD     		pop	{r4, r5, pc}
 177              	.L14:
 178 0036 00BF     		.align	2
 179              	.L13:
 180 0038 00000000 		.word	_bmp180_ui2c
 181              		.cfi_endproc
 182              	.LFE134:
 184              		.section	.text.BMP180_UpdateCalibrationData,"ax",%progbits
 185              		.align	1
 186              		.global	BMP180_UpdateCalibrationData
 187              		.syntax unified
 188              		.thumb
 189              		.thumb_func
 191              	BMP180_UpdateCalibrationData:
 192              	.LFB132:
  43:Core/Src/bmp180_for_stm32_hal.c **** 	_bmp180_eeprom.BMP180_AC1 = (BMP180_ReadReg(BMP180_EEPROM_ADDR_MSB[BMP180_INDEX_AC1]) << 8) | BMP1
 193              		.loc 1 43 41 is_stmt 1 view -0
 194              		.cfi_startproc
 195              		@ args = 0, pretend = 0, frame = 0
 196              		@ frame_needed = 0, uses_anonymous_args = 0
 197 0000 38B5     		push	{r3, r4, r5, lr}
 198              		.cfi_def_cfa_offset 16
 199              		.cfi_offset 3, -16
 200              		.cfi_offset 4, -12
 201              		.cfi_offset 5, -8
 202              		.cfi_offset 14, -4
  44:Core/Src/bmp180_for_stm32_hal.c **** 	_bmp180_eeprom.BMP180_AC2 = (BMP180_ReadReg(BMP180_EEPROM_ADDR_MSB[BMP180_INDEX_AC2]) << 8) | BMP1
 203              		.loc 1 44 2 view .LVU25
  44:Core/Src/bmp180_for_stm32_hal.c **** 	_bmp180_eeprom.BMP180_AC2 = (BMP180_ReadReg(BMP180_EEPROM_ADDR_MSB[BMP180_INDEX_AC2]) << 8) | BMP1
 204              		.loc 1 44 31 is_stmt 0 view .LVU26
 205 0002 AA20     		movs	r0, #170
 206 0004 FFF7FEFF 		bl	BMP180_ReadReg
 207              	.LVL10:
  44:Core/Src/bmp180_for_stm32_hal.c **** 	_bmp180_eeprom.BMP180_AC2 = (BMP180_ReadReg(BMP180_EEPROM_ADDR_MSB[BMP180_INDEX_AC2]) << 8) | BMP1
 208              		.loc 1 44 88 view .LVU27
 209 0008 0402     		lsls	r4, r0, #8
  44:Core/Src/bmp180_for_stm32_hal.c **** 	_bmp180_eeprom.BMP180_AC2 = (BMP180_ReadReg(BMP180_EEPROM_ADDR_MSB[BMP180_INDEX_AC2]) << 8) | BMP1
 210              		.loc 1 44 96 view .LVU28
 211 000a AB20     		movs	r0, #171
 212 000c FFF7FEFF 		bl	BMP180_ReadReg
ARM GAS  C:\Users\pc\AppData\Local\Temp\ccv6eqSb.s 			page 6


 213              	.LVL11:
 214 0010 00B2     		sxth	r0, r0
  44:Core/Src/bmp180_for_stm32_hal.c **** 	_bmp180_eeprom.BMP180_AC2 = (BMP180_ReadReg(BMP180_EEPROM_ADDR_MSB[BMP180_INDEX_AC2]) << 8) | BMP1
 215              		.loc 1 44 94 view .LVU29
 216 0012 2043     		orrs	r0, r0, r4
  44:Core/Src/bmp180_for_stm32_hal.c **** 	_bmp180_eeprom.BMP180_AC2 = (BMP180_ReadReg(BMP180_EEPROM_ADDR_MSB[BMP180_INDEX_AC2]) << 8) | BMP1
 217              		.loc 1 44 28 view .LVU30
 218 0014 334C     		ldr	r4, .L17
 219 0016 2080     		strh	r0, [r4]	@ movhi
  45:Core/Src/bmp180_for_stm32_hal.c **** 	_bmp180_eeprom.BMP180_AC3 = (BMP180_ReadReg(BMP180_EEPROM_ADDR_MSB[BMP180_INDEX_AC3]) << 8) | BMP1
 220              		.loc 1 45 2 is_stmt 1 view .LVU31
  45:Core/Src/bmp180_for_stm32_hal.c **** 	_bmp180_eeprom.BMP180_AC3 = (BMP180_ReadReg(BMP180_EEPROM_ADDR_MSB[BMP180_INDEX_AC3]) << 8) | BMP1
 221              		.loc 1 45 31 is_stmt 0 view .LVU32
 222 0018 AC20     		movs	r0, #172
 223 001a FFF7FEFF 		bl	BMP180_ReadReg
 224              	.LVL12:
  45:Core/Src/bmp180_for_stm32_hal.c **** 	_bmp180_eeprom.BMP180_AC3 = (BMP180_ReadReg(BMP180_EEPROM_ADDR_MSB[BMP180_INDEX_AC3]) << 8) | BMP1
 225              		.loc 1 45 88 view .LVU33
 226 001e 0502     		lsls	r5, r0, #8
  45:Core/Src/bmp180_for_stm32_hal.c **** 	_bmp180_eeprom.BMP180_AC3 = (BMP180_ReadReg(BMP180_EEPROM_ADDR_MSB[BMP180_INDEX_AC3]) << 8) | BMP1
 227              		.loc 1 45 96 view .LVU34
 228 0020 AD20     		movs	r0, #173
 229 0022 FFF7FEFF 		bl	BMP180_ReadReg
 230              	.LVL13:
 231 0026 00B2     		sxth	r0, r0
  45:Core/Src/bmp180_for_stm32_hal.c **** 	_bmp180_eeprom.BMP180_AC3 = (BMP180_ReadReg(BMP180_EEPROM_ADDR_MSB[BMP180_INDEX_AC3]) << 8) | BMP1
 232              		.loc 1 45 94 view .LVU35
 233 0028 2843     		orrs	r0, r0, r5
  45:Core/Src/bmp180_for_stm32_hal.c **** 	_bmp180_eeprom.BMP180_AC3 = (BMP180_ReadReg(BMP180_EEPROM_ADDR_MSB[BMP180_INDEX_AC3]) << 8) | BMP1
 234              		.loc 1 45 28 view .LVU36
 235 002a 6080     		strh	r0, [r4, #2]	@ movhi
  46:Core/Src/bmp180_for_stm32_hal.c **** 	_bmp180_eeprom.BMP180_AC4 = (BMP180_ReadReg(BMP180_EEPROM_ADDR_MSB[BMP180_INDEX_AC4]) << 8) | BMP1
 236              		.loc 1 46 2 is_stmt 1 view .LVU37
  46:Core/Src/bmp180_for_stm32_hal.c **** 	_bmp180_eeprom.BMP180_AC4 = (BMP180_ReadReg(BMP180_EEPROM_ADDR_MSB[BMP180_INDEX_AC4]) << 8) | BMP1
 237              		.loc 1 46 31 is_stmt 0 view .LVU38
 238 002c AE20     		movs	r0, #174
 239 002e FFF7FEFF 		bl	BMP180_ReadReg
 240              	.LVL14:
  46:Core/Src/bmp180_for_stm32_hal.c **** 	_bmp180_eeprom.BMP180_AC4 = (BMP180_ReadReg(BMP180_EEPROM_ADDR_MSB[BMP180_INDEX_AC4]) << 8) | BMP1
 241              		.loc 1 46 88 view .LVU39
 242 0032 0502     		lsls	r5, r0, #8
  46:Core/Src/bmp180_for_stm32_hal.c **** 	_bmp180_eeprom.BMP180_AC4 = (BMP180_ReadReg(BMP180_EEPROM_ADDR_MSB[BMP180_INDEX_AC4]) << 8) | BMP1
 243              		.loc 1 46 96 view .LVU40
 244 0034 AF20     		movs	r0, #175
 245 0036 FFF7FEFF 		bl	BMP180_ReadReg
 246              	.LVL15:
 247 003a 00B2     		sxth	r0, r0
  46:Core/Src/bmp180_for_stm32_hal.c **** 	_bmp180_eeprom.BMP180_AC4 = (BMP180_ReadReg(BMP180_EEPROM_ADDR_MSB[BMP180_INDEX_AC4]) << 8) | BMP1
 248              		.loc 1 46 94 view .LVU41
 249 003c 2843     		orrs	r0, r0, r5
  46:Core/Src/bmp180_for_stm32_hal.c **** 	_bmp180_eeprom.BMP180_AC4 = (BMP180_ReadReg(BMP180_EEPROM_ADDR_MSB[BMP180_INDEX_AC4]) << 8) | BMP1
 250              		.loc 1 46 28 view .LVU42
 251 003e A080     		strh	r0, [r4, #4]	@ movhi
  47:Core/Src/bmp180_for_stm32_hal.c **** 	_bmp180_eeprom.BMP180_AC5 = (BMP180_ReadReg(BMP180_EEPROM_ADDR_MSB[BMP180_INDEX_AC5]) << 8) | BMP1
 252              		.loc 1 47 2 is_stmt 1 view .LVU43
  47:Core/Src/bmp180_for_stm32_hal.c **** 	_bmp180_eeprom.BMP180_AC5 = (BMP180_ReadReg(BMP180_EEPROM_ADDR_MSB[BMP180_INDEX_AC5]) << 8) | BMP1
 253              		.loc 1 47 31 is_stmt 0 view .LVU44
ARM GAS  C:\Users\pc\AppData\Local\Temp\ccv6eqSb.s 			page 7


 254 0040 B020     		movs	r0, #176
 255 0042 FFF7FEFF 		bl	BMP180_ReadReg
 256              	.LVL16:
  47:Core/Src/bmp180_for_stm32_hal.c **** 	_bmp180_eeprom.BMP180_AC5 = (BMP180_ReadReg(BMP180_EEPROM_ADDR_MSB[BMP180_INDEX_AC5]) << 8) | BMP1
 257              		.loc 1 47 88 view .LVU45
 258 0046 0502     		lsls	r5, r0, #8
  47:Core/Src/bmp180_for_stm32_hal.c **** 	_bmp180_eeprom.BMP180_AC5 = (BMP180_ReadReg(BMP180_EEPROM_ADDR_MSB[BMP180_INDEX_AC5]) << 8) | BMP1
 259              		.loc 1 47 96 view .LVU46
 260 0048 B120     		movs	r0, #177
 261 004a FFF7FEFF 		bl	BMP180_ReadReg
 262              	.LVL17:
 263 004e 00B2     		sxth	r0, r0
  47:Core/Src/bmp180_for_stm32_hal.c **** 	_bmp180_eeprom.BMP180_AC5 = (BMP180_ReadReg(BMP180_EEPROM_ADDR_MSB[BMP180_INDEX_AC5]) << 8) | BMP1
 264              		.loc 1 47 94 view .LVU47
 265 0050 2843     		orrs	r0, r0, r5
  47:Core/Src/bmp180_for_stm32_hal.c **** 	_bmp180_eeprom.BMP180_AC5 = (BMP180_ReadReg(BMP180_EEPROM_ADDR_MSB[BMP180_INDEX_AC5]) << 8) | BMP1
 266              		.loc 1 47 28 view .LVU48
 267 0052 E080     		strh	r0, [r4, #6]	@ movhi
  48:Core/Src/bmp180_for_stm32_hal.c **** 	_bmp180_eeprom.BMP180_AC6 = (BMP180_ReadReg(BMP180_EEPROM_ADDR_MSB[BMP180_INDEX_AC6]) << 8) | BMP1
 268              		.loc 1 48 2 is_stmt 1 view .LVU49
  48:Core/Src/bmp180_for_stm32_hal.c **** 	_bmp180_eeprom.BMP180_AC6 = (BMP180_ReadReg(BMP180_EEPROM_ADDR_MSB[BMP180_INDEX_AC6]) << 8) | BMP1
 269              		.loc 1 48 31 is_stmt 0 view .LVU50
 270 0054 B220     		movs	r0, #178
 271 0056 FFF7FEFF 		bl	BMP180_ReadReg
 272              	.LVL18:
  48:Core/Src/bmp180_for_stm32_hal.c **** 	_bmp180_eeprom.BMP180_AC6 = (BMP180_ReadReg(BMP180_EEPROM_ADDR_MSB[BMP180_INDEX_AC6]) << 8) | BMP1
 273              		.loc 1 48 88 view .LVU51
 274 005a 0502     		lsls	r5, r0, #8
  48:Core/Src/bmp180_for_stm32_hal.c **** 	_bmp180_eeprom.BMP180_AC6 = (BMP180_ReadReg(BMP180_EEPROM_ADDR_MSB[BMP180_INDEX_AC6]) << 8) | BMP1
 275              		.loc 1 48 96 view .LVU52
 276 005c B320     		movs	r0, #179
 277 005e FFF7FEFF 		bl	BMP180_ReadReg
 278              	.LVL19:
 279 0062 00B2     		sxth	r0, r0
  48:Core/Src/bmp180_for_stm32_hal.c **** 	_bmp180_eeprom.BMP180_AC6 = (BMP180_ReadReg(BMP180_EEPROM_ADDR_MSB[BMP180_INDEX_AC6]) << 8) | BMP1
 280              		.loc 1 48 94 view .LVU53
 281 0064 2843     		orrs	r0, r0, r5
  48:Core/Src/bmp180_for_stm32_hal.c **** 	_bmp180_eeprom.BMP180_AC6 = (BMP180_ReadReg(BMP180_EEPROM_ADDR_MSB[BMP180_INDEX_AC6]) << 8) | BMP1
 282              		.loc 1 48 28 view .LVU54
 283 0066 2081     		strh	r0, [r4, #8]	@ movhi
  49:Core/Src/bmp180_for_stm32_hal.c **** 	_bmp180_eeprom.BMP180_B1 = (BMP180_ReadReg(BMP180_EEPROM_ADDR_MSB[BMP180_INDEX_B1]) << 8) | BMP180
 284              		.loc 1 49 2 is_stmt 1 view .LVU55
  49:Core/Src/bmp180_for_stm32_hal.c **** 	_bmp180_eeprom.BMP180_B1 = (BMP180_ReadReg(BMP180_EEPROM_ADDR_MSB[BMP180_INDEX_B1]) << 8) | BMP180
 285              		.loc 1 49 31 is_stmt 0 view .LVU56
 286 0068 B420     		movs	r0, #180
 287 006a FFF7FEFF 		bl	BMP180_ReadReg
 288              	.LVL20:
  49:Core/Src/bmp180_for_stm32_hal.c **** 	_bmp180_eeprom.BMP180_B1 = (BMP180_ReadReg(BMP180_EEPROM_ADDR_MSB[BMP180_INDEX_B1]) << 8) | BMP180
 289              		.loc 1 49 88 view .LVU57
 290 006e 0502     		lsls	r5, r0, #8
  49:Core/Src/bmp180_for_stm32_hal.c **** 	_bmp180_eeprom.BMP180_B1 = (BMP180_ReadReg(BMP180_EEPROM_ADDR_MSB[BMP180_INDEX_B1]) << 8) | BMP180
 291              		.loc 1 49 96 view .LVU58
 292 0070 B520     		movs	r0, #181
 293 0072 FFF7FEFF 		bl	BMP180_ReadReg
 294              	.LVL21:
 295 0076 00B2     		sxth	r0, r0
  49:Core/Src/bmp180_for_stm32_hal.c **** 	_bmp180_eeprom.BMP180_B1 = (BMP180_ReadReg(BMP180_EEPROM_ADDR_MSB[BMP180_INDEX_B1]) << 8) | BMP180
ARM GAS  C:\Users\pc\AppData\Local\Temp\ccv6eqSb.s 			page 8


 296              		.loc 1 49 94 view .LVU59
 297 0078 2843     		orrs	r0, r0, r5
  49:Core/Src/bmp180_for_stm32_hal.c **** 	_bmp180_eeprom.BMP180_B1 = (BMP180_ReadReg(BMP180_EEPROM_ADDR_MSB[BMP180_INDEX_B1]) << 8) | BMP180
 298              		.loc 1 49 28 view .LVU60
 299 007a 6081     		strh	r0, [r4, #10]	@ movhi
  50:Core/Src/bmp180_for_stm32_hal.c **** 	_bmp180_eeprom.BMP180_B2 = (BMP180_ReadReg(BMP180_EEPROM_ADDR_MSB[BMP180_INDEX_B2]) << 8) | BMP180
 300              		.loc 1 50 2 is_stmt 1 view .LVU61
  50:Core/Src/bmp180_for_stm32_hal.c **** 	_bmp180_eeprom.BMP180_B2 = (BMP180_ReadReg(BMP180_EEPROM_ADDR_MSB[BMP180_INDEX_B2]) << 8) | BMP180
 301              		.loc 1 50 30 is_stmt 0 view .LVU62
 302 007c B620     		movs	r0, #182
 303 007e FFF7FEFF 		bl	BMP180_ReadReg
 304              	.LVL22:
  50:Core/Src/bmp180_for_stm32_hal.c **** 	_bmp180_eeprom.BMP180_B2 = (BMP180_ReadReg(BMP180_EEPROM_ADDR_MSB[BMP180_INDEX_B2]) << 8) | BMP180
 305              		.loc 1 50 86 view .LVU63
 306 0082 0502     		lsls	r5, r0, #8
  50:Core/Src/bmp180_for_stm32_hal.c **** 	_bmp180_eeprom.BMP180_B2 = (BMP180_ReadReg(BMP180_EEPROM_ADDR_MSB[BMP180_INDEX_B2]) << 8) | BMP180
 307              		.loc 1 50 94 view .LVU64
 308 0084 B720     		movs	r0, #183
 309 0086 FFF7FEFF 		bl	BMP180_ReadReg
 310              	.LVL23:
 311 008a 00B2     		sxth	r0, r0
  50:Core/Src/bmp180_for_stm32_hal.c **** 	_bmp180_eeprom.BMP180_B2 = (BMP180_ReadReg(BMP180_EEPROM_ADDR_MSB[BMP180_INDEX_B2]) << 8) | BMP180
 312              		.loc 1 50 92 view .LVU65
 313 008c 2843     		orrs	r0, r0, r5
  50:Core/Src/bmp180_for_stm32_hal.c **** 	_bmp180_eeprom.BMP180_B2 = (BMP180_ReadReg(BMP180_EEPROM_ADDR_MSB[BMP180_INDEX_B2]) << 8) | BMP180
 314              		.loc 1 50 27 view .LVU66
 315 008e A081     		strh	r0, [r4, #12]	@ movhi
  51:Core/Src/bmp180_for_stm32_hal.c **** 	_bmp180_eeprom.BMP180_MB = (BMP180_ReadReg(BMP180_EEPROM_ADDR_MSB[BMP180_INDEX_MB]) << 8) | BMP180
 316              		.loc 1 51 2 is_stmt 1 view .LVU67
  51:Core/Src/bmp180_for_stm32_hal.c **** 	_bmp180_eeprom.BMP180_MB = (BMP180_ReadReg(BMP180_EEPROM_ADDR_MSB[BMP180_INDEX_MB]) << 8) | BMP180
 317              		.loc 1 51 30 is_stmt 0 view .LVU68
 318 0090 B820     		movs	r0, #184
 319 0092 FFF7FEFF 		bl	BMP180_ReadReg
 320              	.LVL24:
  51:Core/Src/bmp180_for_stm32_hal.c **** 	_bmp180_eeprom.BMP180_MB = (BMP180_ReadReg(BMP180_EEPROM_ADDR_MSB[BMP180_INDEX_MB]) << 8) | BMP180
 321              		.loc 1 51 86 view .LVU69
 322 0096 0502     		lsls	r5, r0, #8
  51:Core/Src/bmp180_for_stm32_hal.c **** 	_bmp180_eeprom.BMP180_MB = (BMP180_ReadReg(BMP180_EEPROM_ADDR_MSB[BMP180_INDEX_MB]) << 8) | BMP180
 323              		.loc 1 51 94 view .LVU70
 324 0098 B920     		movs	r0, #185
 325 009a FFF7FEFF 		bl	BMP180_ReadReg
 326              	.LVL25:
 327 009e 00B2     		sxth	r0, r0
  51:Core/Src/bmp180_for_stm32_hal.c **** 	_bmp180_eeprom.BMP180_MB = (BMP180_ReadReg(BMP180_EEPROM_ADDR_MSB[BMP180_INDEX_MB]) << 8) | BMP180
 328              		.loc 1 51 92 view .LVU71
 329 00a0 2843     		orrs	r0, r0, r5
  51:Core/Src/bmp180_for_stm32_hal.c **** 	_bmp180_eeprom.BMP180_MB = (BMP180_ReadReg(BMP180_EEPROM_ADDR_MSB[BMP180_INDEX_MB]) << 8) | BMP180
 330              		.loc 1 51 27 view .LVU72
 331 00a2 E081     		strh	r0, [r4, #14]	@ movhi
  52:Core/Src/bmp180_for_stm32_hal.c **** 	_bmp180_eeprom.BMP180_MC = (BMP180_ReadReg(BMP180_EEPROM_ADDR_MSB[BMP180_INDEX_MC]) << 8) | BMP180
 332              		.loc 1 52 2 is_stmt 1 view .LVU73
  52:Core/Src/bmp180_for_stm32_hal.c **** 	_bmp180_eeprom.BMP180_MC = (BMP180_ReadReg(BMP180_EEPROM_ADDR_MSB[BMP180_INDEX_MC]) << 8) | BMP180
 333              		.loc 1 52 30 is_stmt 0 view .LVU74
 334 00a4 BA20     		movs	r0, #186
 335 00a6 FFF7FEFF 		bl	BMP180_ReadReg
 336              	.LVL26:
  52:Core/Src/bmp180_for_stm32_hal.c **** 	_bmp180_eeprom.BMP180_MC = (BMP180_ReadReg(BMP180_EEPROM_ADDR_MSB[BMP180_INDEX_MC]) << 8) | BMP180
ARM GAS  C:\Users\pc\AppData\Local\Temp\ccv6eqSb.s 			page 9


 337              		.loc 1 52 86 view .LVU75
 338 00aa 0502     		lsls	r5, r0, #8
  52:Core/Src/bmp180_for_stm32_hal.c **** 	_bmp180_eeprom.BMP180_MC = (BMP180_ReadReg(BMP180_EEPROM_ADDR_MSB[BMP180_INDEX_MC]) << 8) | BMP180
 339              		.loc 1 52 94 view .LVU76
 340 00ac BB20     		movs	r0, #187
 341 00ae FFF7FEFF 		bl	BMP180_ReadReg
 342              	.LVL27:
 343 00b2 00B2     		sxth	r0, r0
  52:Core/Src/bmp180_for_stm32_hal.c **** 	_bmp180_eeprom.BMP180_MC = (BMP180_ReadReg(BMP180_EEPROM_ADDR_MSB[BMP180_INDEX_MC]) << 8) | BMP180
 344              		.loc 1 52 92 view .LVU77
 345 00b4 2843     		orrs	r0, r0, r5
  52:Core/Src/bmp180_for_stm32_hal.c **** 	_bmp180_eeprom.BMP180_MC = (BMP180_ReadReg(BMP180_EEPROM_ADDR_MSB[BMP180_INDEX_MC]) << 8) | BMP180
 346              		.loc 1 52 27 view .LVU78
 347 00b6 2082     		strh	r0, [r4, #16]	@ movhi
  53:Core/Src/bmp180_for_stm32_hal.c **** 	_bmp180_eeprom.BMP180_MD = (BMP180_ReadReg(BMP180_EEPROM_ADDR_MSB[BMP180_INDEX_MD]) << 8) | BMP180
 348              		.loc 1 53 2 is_stmt 1 view .LVU79
  53:Core/Src/bmp180_for_stm32_hal.c **** 	_bmp180_eeprom.BMP180_MD = (BMP180_ReadReg(BMP180_EEPROM_ADDR_MSB[BMP180_INDEX_MD]) << 8) | BMP180
 349              		.loc 1 53 30 is_stmt 0 view .LVU80
 350 00b8 BC20     		movs	r0, #188
 351 00ba FFF7FEFF 		bl	BMP180_ReadReg
 352              	.LVL28:
  53:Core/Src/bmp180_for_stm32_hal.c **** 	_bmp180_eeprom.BMP180_MD = (BMP180_ReadReg(BMP180_EEPROM_ADDR_MSB[BMP180_INDEX_MD]) << 8) | BMP180
 353              		.loc 1 53 86 view .LVU81
 354 00be 0502     		lsls	r5, r0, #8
  53:Core/Src/bmp180_for_stm32_hal.c **** 	_bmp180_eeprom.BMP180_MD = (BMP180_ReadReg(BMP180_EEPROM_ADDR_MSB[BMP180_INDEX_MD]) << 8) | BMP180
 355              		.loc 1 53 94 view .LVU82
 356 00c0 BD20     		movs	r0, #189
 357 00c2 FFF7FEFF 		bl	BMP180_ReadReg
 358              	.LVL29:
 359 00c6 00B2     		sxth	r0, r0
  53:Core/Src/bmp180_for_stm32_hal.c **** 	_bmp180_eeprom.BMP180_MD = (BMP180_ReadReg(BMP180_EEPROM_ADDR_MSB[BMP180_INDEX_MD]) << 8) | BMP180
 360              		.loc 1 53 92 view .LVU83
 361 00c8 2843     		orrs	r0, r0, r5
  53:Core/Src/bmp180_for_stm32_hal.c **** 	_bmp180_eeprom.BMP180_MD = (BMP180_ReadReg(BMP180_EEPROM_ADDR_MSB[BMP180_INDEX_MD]) << 8) | BMP180
 362              		.loc 1 53 27 view .LVU84
 363 00ca 6082     		strh	r0, [r4, #18]	@ movhi
  54:Core/Src/bmp180_for_stm32_hal.c **** }
 364              		.loc 1 54 2 is_stmt 1 view .LVU85
  54:Core/Src/bmp180_for_stm32_hal.c **** }
 365              		.loc 1 54 30 is_stmt 0 view .LVU86
 366 00cc BE20     		movs	r0, #190
 367 00ce FFF7FEFF 		bl	BMP180_ReadReg
 368              	.LVL30:
  54:Core/Src/bmp180_for_stm32_hal.c **** }
 369              		.loc 1 54 86 view .LVU87
 370 00d2 0502     		lsls	r5, r0, #8
  54:Core/Src/bmp180_for_stm32_hal.c **** }
 371              		.loc 1 54 94 view .LVU88
 372 00d4 BF20     		movs	r0, #191
 373 00d6 FFF7FEFF 		bl	BMP180_ReadReg
 374              	.LVL31:
 375 00da 00B2     		sxth	r0, r0
  54:Core/Src/bmp180_for_stm32_hal.c **** }
 376              		.loc 1 54 92 view .LVU89
 377 00dc 2843     		orrs	r0, r0, r5
  54:Core/Src/bmp180_for_stm32_hal.c **** }
 378              		.loc 1 54 27 view .LVU90
ARM GAS  C:\Users\pc\AppData\Local\Temp\ccv6eqSb.s 			page 10


 379 00de A082     		strh	r0, [r4, #20]	@ movhi
  55:Core/Src/bmp180_for_stm32_hal.c **** 
 380              		.loc 1 55 1 view .LVU91
 381 00e0 38BD     		pop	{r3, r4, r5, pc}
 382              	.L18:
 383 00e2 00BF     		.align	2
 384              	.L17:
 385 00e4 00000000 		.word	_bmp180_eeprom
 386              		.cfi_endproc
 387              	.LFE132:
 389              		.section	.text.BMP180_GetRawTemperature,"ax",%progbits
 390              		.align	1
 391              		.global	BMP180_GetRawTemperature
 392              		.syntax unified
 393              		.thumb
 394              		.thumb_func
 396              	BMP180_GetRawTemperature:
 397              	.LFB135:
  78:Core/Src/bmp180_for_stm32_hal.c **** 
  79:Core/Src/bmp180_for_stm32_hal.c **** /**
  80:Core/Src/bmp180_for_stm32_hal.c ****  * @brief Measures and calculates temperature.
  81:Core/Src/bmp180_for_stm32_hal.c ****  * @return Temperature in 0.1 (1/10) degrees Celsius.
  82:Core/Src/bmp180_for_stm32_hal.c ****  */
  83:Core/Src/bmp180_for_stm32_hal.c **** int32_t BMP180_GetRawTemperature(void) {
 398              		.loc 1 83 40 is_stmt 1 view -0
 399              		.cfi_startproc
 400              		@ args = 0, pretend = 0, frame = 0
 401              		@ frame_needed = 0, uses_anonymous_args = 0
 402 0000 10B5     		push	{r4, lr}
 403              		.cfi_def_cfa_offset 8
 404              		.cfi_offset 4, -8
 405              		.cfi_offset 14, -4
  84:Core/Src/bmp180_for_stm32_hal.c **** 	BMP180_WriteReg(BMP180_CONTROL_REG, BMP180_CMD_TEMP);
 406              		.loc 1 84 2 view .LVU93
 407 0002 2E21     		movs	r1, #46
 408 0004 F420     		movs	r0, #244
 409 0006 FFF7FEFF 		bl	BMP180_WriteReg
 410              	.LVL32:
  85:Core/Src/bmp180_for_stm32_hal.c **** 	HAL_Delay(BMP180_DELAY_TEMP);
 411              		.loc 1 85 2 view .LVU94
 412 000a 0520     		movs	r0, #5
 413 000c FFF7FEFF 		bl	HAL_Delay
 414              	.LVL33:
  86:Core/Src/bmp180_for_stm32_hal.c **** 	int32_t ut = (BMP180_ReadReg(BMP180_MSB_REG) << 8) | BMP180_ReadReg(BMP180_LSB_REG);
 415              		.loc 1 86 2 view .LVU95
 416              		.loc 1 86 16 is_stmt 0 view .LVU96
 417 0010 F620     		movs	r0, #246
 418 0012 FFF7FEFF 		bl	BMP180_ReadReg
 419              	.LVL34:
 420              		.loc 1 86 47 view .LVU97
 421 0016 0402     		lsls	r4, r0, #8
 422              		.loc 1 86 55 view .LVU98
 423 0018 F720     		movs	r0, #247
 424 001a FFF7FEFF 		bl	BMP180_ReadReg
 425              	.LVL35:
 426              		.loc 1 86 10 view .LVU99
 427 001e 44EA0003 		orr	r3, r4, r0
ARM GAS  C:\Users\pc\AppData\Local\Temp\ccv6eqSb.s 			page 11


 428              	.LVL36:
  87:Core/Src/bmp180_for_stm32_hal.c **** 	int32_t x1 = (ut - _bmp180_eeprom.BMP180_AC6) * _bmp180_eeprom.BMP180_AC5 / (1 << 15);
 429              		.loc 1 87 2 is_stmt 1 view .LVU100
 430              		.loc 1 87 35 is_stmt 0 view .LVU101
 431 0022 0F4A     		ldr	r2, .L25
 432 0024 5189     		ldrh	r1, [r2, #10]
 433              		.loc 1 87 19 view .LVU102
 434 0026 5B1A     		subs	r3, r3, r1
 435              	.LVL37:
 436              		.loc 1 87 64 view .LVU103
 437 0028 1289     		ldrh	r2, [r2, #8]
 438              		.loc 1 87 48 view .LVU104
 439 002a 02FB03F3 		mul	r3, r2, r3
 440              		.loc 1 87 10 view .LVU105
 441 002e 002B     		cmp	r3, #0
 442 0030 0FDB     		blt	.L23
 443              	.L20:
 444              	.LVL38:
  88:Core/Src/bmp180_for_stm32_hal.c **** 	int32_t x2 = (_bmp180_eeprom.BMP180_MC * (1 << 11)) / (x1 + _bmp180_eeprom.BMP180_MD);
 445              		.loc 1 88 2 is_stmt 1 view .LVU106
 446              		.loc 1 88 30 is_stmt 0 view .LVU107
 447 0032 0B4A     		ldr	r2, .L25
 448 0034 B2F91200 		ldrsh	r0, [r2, #18]
 449              	.LVL39:
 450              		.loc 1 88 41 view .LVU108
 451 0038 C002     		lsls	r0, r0, #11
 452              		.loc 1 88 76 view .LVU109
 453 003a B2F91420 		ldrsh	r2, [r2, #20]
 454              		.loc 1 88 60 view .LVU110
 455 003e 02EBE332 		add	r2, r2, r3, asr #15
 456              		.loc 1 88 10 view .LVU111
 457 0042 90FBF2F0 		sdiv	r0, r0, r2
 458              	.LVL40:
  89:Core/Src/bmp180_for_stm32_hal.c **** 	int32_t b5 = x1 + x2;
 459              		.loc 1 89 2 is_stmt 1 view .LVU112
 460              		.loc 1 89 10 is_stmt 0 view .LVU113
 461 0046 00EBE330 		add	r0, r0, r3, asr #15
 462              	.LVL41:
  90:Core/Src/bmp180_for_stm32_hal.c **** 	return (b5 + 8) / (1 << 4);
 463              		.loc 1 90 2 is_stmt 1 view .LVU114
 464              		.loc 1 90 18 is_stmt 0 view .LVU115
 465 004a 0830     		adds	r0, r0, #8
 466              	.LVL42:
 467              		.loc 1 90 18 view .LVU116
 468 004c 05D4     		bmi	.L24
 469              	.LVL43:
 470              	.L21:
  91:Core/Src/bmp180_for_stm32_hal.c **** }
 471              		.loc 1 91 1 view .LVU117
 472 004e 0011     		asrs	r0, r0, #4
 473 0050 10BD     		pop	{r4, pc}
 474              	.LVL44:
 475              	.L23:
  87:Core/Src/bmp180_for_stm32_hal.c **** 	int32_t x2 = (_bmp180_eeprom.BMP180_MC * (1 << 11)) / (x1 + _bmp180_eeprom.BMP180_MD);
 476              		.loc 1 87 10 view .LVU118
 477 0052 03F5FF43 		add	r3, r3, #32640
 478 0056 7F33     		adds	r3, r3, #127
ARM GAS  C:\Users\pc\AppData\Local\Temp\ccv6eqSb.s 			page 12


 479 0058 EBE7     		b	.L20
 480              	.LVL45:
 481              	.L24:
  90:Core/Src/bmp180_for_stm32_hal.c **** 	return (b5 + 8) / (1 << 4);
 482              		.loc 1 90 18 view .LVU119
 483 005a 0F30     		adds	r0, r0, #15
 484              	.LVL46:
  90:Core/Src/bmp180_for_stm32_hal.c **** 	return (b5 + 8) / (1 << 4);
 485              		.loc 1 90 18 view .LVU120
 486 005c F7E7     		b	.L21
 487              	.L26:
 488 005e 00BF     		.align	2
 489              	.L25:
 490 0060 00000000 		.word	_bmp180_eeprom
 491              		.cfi_endproc
 492              	.LFE135:
 494              		.global	__aeabi_i2d
 495              		.global	__aeabi_ddiv
 496              		.global	__aeabi_d2f
 497              		.section	.text.BMP180_GetTemperature,"ax",%progbits
 498              		.align	1
 499              		.global	BMP180_GetTemperature
 500              		.syntax unified
 501              		.thumb
 502              		.thumb_func
 504              	BMP180_GetTemperature:
 505              	.LFB136:
  92:Core/Src/bmp180_for_stm32_hal.c **** 
  93:Core/Src/bmp180_for_stm32_hal.c **** /**
  94:Core/Src/bmp180_for_stm32_hal.c ****  * @brief Measures and calculates temperature.
  95:Core/Src/bmp180_for_stm32_hal.c ****  * @return Temperature in degrees Celsius.
  96:Core/Src/bmp180_for_stm32_hal.c ****  */
  97:Core/Src/bmp180_for_stm32_hal.c **** float BMP180_GetTemperature(void) {
 506              		.loc 1 97 35 is_stmt 1 view -0
 507              		.cfi_startproc
 508              		@ args = 0, pretend = 0, frame = 0
 509              		@ frame_needed = 0, uses_anonymous_args = 0
 510 0000 08B5     		push	{r3, lr}
 511              		.cfi_def_cfa_offset 8
 512              		.cfi_offset 3, -8
 513              		.cfi_offset 14, -4
  98:Core/Src/bmp180_for_stm32_hal.c **** 	int32_t temp = BMP180_GetRawTemperature();
 514              		.loc 1 98 2 view .LVU122
 515              		.loc 1 98 17 is_stmt 0 view .LVU123
 516 0002 FFF7FEFF 		bl	BMP180_GetRawTemperature
 517              	.LVL47:
  99:Core/Src/bmp180_for_stm32_hal.c **** 	return temp / 10.0;
 518              		.loc 1 99 2 is_stmt 1 view .LVU124
 519              		.loc 1 99 14 is_stmt 0 view .LVU125
 520 0006 FFF7FEFF 		bl	__aeabi_i2d
 521              	.LVL48:
 522              		.loc 1 99 14 view .LVU126
 523 000a 0022     		movs	r2, #0
 524 000c 034B     		ldr	r3, .L29
 525 000e FFF7FEFF 		bl	__aeabi_ddiv
 526              	.LVL49:
 527 0012 FFF7FEFF 		bl	__aeabi_d2f
ARM GAS  C:\Users\pc\AppData\Local\Temp\ccv6eqSb.s 			page 13


 528              	.LVL50:
 100:Core/Src/bmp180_for_stm32_hal.c **** }
 529              		.loc 1 100 1 view .LVU127
 530 0016 00EE100A 		vmov	s0, r0
 531 001a 08BD     		pop	{r3, pc}
 532              	.L30:
 533              		.align	2
 534              	.L29:
 535 001c 00002440 		.word	1076101120
 536              		.cfi_endproc
 537              	.LFE136:
 539              		.section	.text.BMP180_GetUT,"ax",%progbits
 540              		.align	1
 541              		.global	BMP180_GetUT
 542              		.syntax unified
 543              		.thumb
 544              		.thumb_func
 546              	BMP180_GetUT:
 547              	.LFB138:
 101:Core/Src/bmp180_for_stm32_hal.c **** 
 102:Core/Src/bmp180_for_stm32_hal.c **** /**
 103:Core/Src/bmp180_for_stm32_hal.c ****  * @brief Measures and calculates pressure.
 104:Core/Src/bmp180_for_stm32_hal.c ****  * @return Pressure in Pascal(Pa).
 105:Core/Src/bmp180_for_stm32_hal.c ****  */
 106:Core/Src/bmp180_for_stm32_hal.c **** int32_t BMP180_GetPressure(void) {
 107:Core/Src/bmp180_for_stm32_hal.c **** 	BMP180_WriteReg(BMP180_CONTROL_REG, BMP180_CMD_TEMP);
 108:Core/Src/bmp180_for_stm32_hal.c **** 	HAL_Delay(BMP180_DELAY_TEMP);
 109:Core/Src/bmp180_for_stm32_hal.c **** 	int32_t ut = BMP180_GetUT();
 110:Core/Src/bmp180_for_stm32_hal.c **** 	BMP180_WriteReg(BMP180_CONTROL_REG, BMP180_CMD_PRES[_bmp180_oss]);
 111:Core/Src/bmp180_for_stm32_hal.c **** 	HAL_Delay(BMP180_DELAY_PRES[_bmp180_oss]);
 112:Core/Src/bmp180_for_stm32_hal.c **** 	int32_t up = BMP180_GetUP();
 113:Core/Src/bmp180_for_stm32_hal.c **** 	int32_t x1 = (ut - _bmp180_eeprom.BMP180_AC6) * _bmp180_eeprom.BMP180_AC5 / (1 << 15);
 114:Core/Src/bmp180_for_stm32_hal.c **** 	int32_t x2 = (_bmp180_eeprom.BMP180_MC * (1 << 11)) / (x1 + _bmp180_eeprom.BMP180_MD);
 115:Core/Src/bmp180_for_stm32_hal.c **** 	int32_t b5 = x1 + x2;
 116:Core/Src/bmp180_for_stm32_hal.c **** 	int32_t b6 = b5 - 4000;
 117:Core/Src/bmp180_for_stm32_hal.c **** 	x1 = (_bmp180_eeprom.BMP180_B2 * (b6 * b6 / (1 << 12))) / (1 << 11);
 118:Core/Src/bmp180_for_stm32_hal.c **** 	x2 = _bmp180_eeprom.BMP180_AC2 * b6 / (1 << 11);
 119:Core/Src/bmp180_for_stm32_hal.c **** 	int32_t x3 = x1 + x2;
 120:Core/Src/bmp180_for_stm32_hal.c **** 	int32_t b3 = (((_bmp180_eeprom.BMP180_AC1 * 4 + x3) << _bmp180_oss) + 2) / 4;
 121:Core/Src/bmp180_for_stm32_hal.c **** 	x1 = _bmp180_eeprom.BMP180_AC3 * b6 / (1 << 13);
 122:Core/Src/bmp180_for_stm32_hal.c **** 	x2 = (_bmp180_eeprom.BMP180_B1 * (b6 * b6 / (1 << 12))) / (1 << 16);
 123:Core/Src/bmp180_for_stm32_hal.c **** 	x3 = ((x1 + x2) + 2) / 4;
 124:Core/Src/bmp180_for_stm32_hal.c **** 	uint32_t b4 = _bmp180_eeprom.BMP180_AC4 * (uint32_t) (x3 + 32768) / (1 << 15);
 125:Core/Src/bmp180_for_stm32_hal.c **** 	uint32_t b7 = ((uint32_t) up - b3) * (50000 >> _bmp180_oss);
 126:Core/Src/bmp180_for_stm32_hal.c **** 	int32_t p;
 127:Core/Src/bmp180_for_stm32_hal.c **** 	if (b7 < 0x80000000)
 128:Core/Src/bmp180_for_stm32_hal.c **** 		p = (b7 * 2) / b4;
 129:Core/Src/bmp180_for_stm32_hal.c **** 	else
 130:Core/Src/bmp180_for_stm32_hal.c **** 		p = (b7 / b4) * 2;
 131:Core/Src/bmp180_for_stm32_hal.c **** 	x1 = (p / (1 << 8)) * (p / (1 << 8));
 132:Core/Src/bmp180_for_stm32_hal.c **** 	x1 = (x1 * 3038) / (1 << 16);
 133:Core/Src/bmp180_for_stm32_hal.c **** 	x2 = (-7357 * p) / (1 << 16);
 134:Core/Src/bmp180_for_stm32_hal.c **** 	p = p + (x1 + x2 + 3791) / (1 << 4);
 135:Core/Src/bmp180_for_stm32_hal.c **** 	return p;
 136:Core/Src/bmp180_for_stm32_hal.c **** }
 137:Core/Src/bmp180_for_stm32_hal.c **** 
 138:Core/Src/bmp180_for_stm32_hal.c **** int32_t BMP180_GetUT(void){
ARM GAS  C:\Users\pc\AppData\Local\Temp\ccv6eqSb.s 			page 14


 548              		.loc 1 138 27 is_stmt 1 view -0
 549              		.cfi_startproc
 550              		@ args = 0, pretend = 0, frame = 0
 551              		@ frame_needed = 0, uses_anonymous_args = 0
 552 0000 10B5     		push	{r4, lr}
 553              		.cfi_def_cfa_offset 8
 554              		.cfi_offset 4, -8
 555              		.cfi_offset 14, -4
 139:Core/Src/bmp180_for_stm32_hal.c **** 	return (BMP180_ReadReg(BMP180_MSB_REG) << 8) | BMP180_ReadReg(BMP180_LSB_REG);
 556              		.loc 1 139 2 view .LVU129
 557              		.loc 1 139 10 is_stmt 0 view .LVU130
 558 0002 F620     		movs	r0, #246
 559 0004 FFF7FEFF 		bl	BMP180_ReadReg
 560              	.LVL51:
 561              		.loc 1 139 41 view .LVU131
 562 0008 0402     		lsls	r4, r0, #8
 563              		.loc 1 139 49 view .LVU132
 564 000a F720     		movs	r0, #247
 565 000c FFF7FEFF 		bl	BMP180_ReadReg
 566              	.LVL52:
 140:Core/Src/bmp180_for_stm32_hal.c **** }
 567              		.loc 1 140 1 view .LVU133
 568 0010 2043     		orrs	r0, r0, r4
 569 0012 10BD     		pop	{r4, pc}
 570              		.cfi_endproc
 571              	.LFE138:
 573              		.section	.text.BMP180_GetUP,"ax",%progbits
 574              		.align	1
 575              		.global	BMP180_GetUP
 576              		.syntax unified
 577              		.thumb
 578              		.thumb_func
 580              	BMP180_GetUP:
 581              	.LFB139:
 141:Core/Src/bmp180_for_stm32_hal.c **** 
 142:Core/Src/bmp180_for_stm32_hal.c **** int32_t BMP180_GetUP(void){
 582              		.loc 1 142 27 is_stmt 1 view -0
 583              		.cfi_startproc
 584              		@ args = 0, pretend = 0, frame = 0
 585              		@ frame_needed = 0, uses_anonymous_args = 0
 586 0000 10B5     		push	{r4, lr}
 587              		.cfi_def_cfa_offset 8
 588              		.cfi_offset 4, -8
 589              		.cfi_offset 14, -4
 143:Core/Src/bmp180_for_stm32_hal.c **** 	return ((BMP180_ReadReg(BMP180_MSB_REG) << 16) | (BMP180_ReadReg(BMP180_LSB_REG) << 8) | BMP180_Re
 590              		.loc 1 143 2 view .LVU135
 591              		.loc 1 143 11 is_stmt 0 view .LVU136
 592 0002 F620     		movs	r0, #246
 593 0004 FFF7FEFF 		bl	BMP180_ReadReg
 594              	.LVL53:
 595              		.loc 1 143 42 view .LVU137
 596 0008 0404     		lsls	r4, r0, #16
 597              		.loc 1 143 52 view .LVU138
 598 000a F720     		movs	r0, #247
 599 000c FFF7FEFF 		bl	BMP180_ReadReg
 600              	.LVL54:
 601              		.loc 1 143 49 view .LVU139
ARM GAS  C:\Users\pc\AppData\Local\Temp\ccv6eqSb.s 			page 15


 602 0010 44EA0024 		orr	r4, r4, r0, lsl #8
 603              		.loc 1 143 91 view .LVU140
 604 0014 F820     		movs	r0, #248
 605 0016 FFF7FEFF 		bl	BMP180_ReadReg
 606              	.LVL55:
 607              		.loc 1 143 89 view .LVU141
 608 001a 0443     		orrs	r4, r4, r0
 609              		.loc 1 143 130 view .LVU142
 610 001c 034B     		ldr	r3, .L35
 611 001e 1878     		ldrb	r0, [r3]	@ zero_extendqisi2
 612 0020 C0F10800 		rsb	r0, r0, #8
 144:Core/Src/bmp180_for_stm32_hal.c **** }
 613              		.loc 1 144 1 view .LVU143
 614 0024 44FA00F0 		asr	r0, r4, r0
 615 0028 10BD     		pop	{r4, pc}
 616              	.L36:
 617 002a 00BF     		.align	2
 618              	.L35:
 619 002c 00000000 		.word	_bmp180_oss
 620              		.cfi_endproc
 621              	.LFE139:
 623              		.section	.text.BMP180_GetPressure,"ax",%progbits
 624              		.align	1
 625              		.global	BMP180_GetPressure
 626              		.syntax unified
 627              		.thumb
 628              		.thumb_func
 630              	BMP180_GetPressure:
 631              	.LFB137:
 106:Core/Src/bmp180_for_stm32_hal.c **** 	BMP180_WriteReg(BMP180_CONTROL_REG, BMP180_CMD_TEMP);
 632              		.loc 1 106 34 is_stmt 1 view -0
 633              		.cfi_startproc
 634              		@ args = 0, pretend = 0, frame = 0
 635              		@ frame_needed = 0, uses_anonymous_args = 0
 636 0000 38B5     		push	{r3, r4, r5, lr}
 637              		.cfi_def_cfa_offset 16
 638              		.cfi_offset 3, -16
 639              		.cfi_offset 4, -12
 640              		.cfi_offset 5, -8
 641              		.cfi_offset 14, -4
 107:Core/Src/bmp180_for_stm32_hal.c **** 	HAL_Delay(BMP180_DELAY_TEMP);
 642              		.loc 1 107 2 view .LVU145
 643 0002 2E21     		movs	r1, #46
 644 0004 F420     		movs	r0, #244
 645 0006 FFF7FEFF 		bl	BMP180_WriteReg
 646              	.LVL56:
 108:Core/Src/bmp180_for_stm32_hal.c **** 	int32_t ut = BMP180_GetUT();
 647              		.loc 1 108 2 view .LVU146
 648 000a 0520     		movs	r0, #5
 649 000c FFF7FEFF 		bl	HAL_Delay
 650              	.LVL57:
 109:Core/Src/bmp180_for_stm32_hal.c **** 	BMP180_WriteReg(BMP180_CONTROL_REG, BMP180_CMD_PRES[_bmp180_oss]);
 651              		.loc 1 109 2 view .LVU147
 109:Core/Src/bmp180_for_stm32_hal.c **** 	BMP180_WriteReg(BMP180_CONTROL_REG, BMP180_CMD_PRES[_bmp180_oss]);
 652              		.loc 1 109 15 is_stmt 0 view .LVU148
 653 0010 FFF7FEFF 		bl	BMP180_GetUT
 654              	.LVL58:
ARM GAS  C:\Users\pc\AppData\Local\Temp\ccv6eqSb.s 			page 16


 655 0014 0446     		mov	r4, r0
 656              	.LVL59:
 110:Core/Src/bmp180_for_stm32_hal.c **** 	HAL_Delay(BMP180_DELAY_PRES[_bmp180_oss]);
 657              		.loc 1 110 2 is_stmt 1 view .LVU149
 658 0016 5B4D     		ldr	r5, .L65
 659 0018 2B78     		ldrb	r3, [r5]	@ zero_extendqisi2
 660 001a 5B4A     		ldr	r2, .L65+4
 661 001c D15C     		ldrb	r1, [r2, r3]	@ zero_extendqisi2
 662 001e F420     		movs	r0, #244
 663              	.LVL60:
 110:Core/Src/bmp180_for_stm32_hal.c **** 	HAL_Delay(BMP180_DELAY_PRES[_bmp180_oss]);
 664              		.loc 1 110 2 is_stmt 0 view .LVU150
 665 0020 FFF7FEFF 		bl	BMP180_WriteReg
 666              	.LVL61:
 111:Core/Src/bmp180_for_stm32_hal.c **** 	int32_t up = BMP180_GetUP();
 667              		.loc 1 111 2 is_stmt 1 view .LVU151
 111:Core/Src/bmp180_for_stm32_hal.c **** 	int32_t up = BMP180_GetUP();
 668              		.loc 1 111 29 is_stmt 0 view .LVU152
 669 0024 2B78     		ldrb	r3, [r5]	@ zero_extendqisi2
 111:Core/Src/bmp180_for_stm32_hal.c **** 	int32_t up = BMP180_GetUP();
 670              		.loc 1 111 2 view .LVU153
 671 0026 594A     		ldr	r2, .L65+8
 672 0028 D05C     		ldrb	r0, [r2, r3]	@ zero_extendqisi2
 673 002a FFF7FEFF 		bl	HAL_Delay
 674              	.LVL62:
 112:Core/Src/bmp180_for_stm32_hal.c **** 	int32_t x1 = (ut - _bmp180_eeprom.BMP180_AC6) * _bmp180_eeprom.BMP180_AC5 / (1 << 15);
 675              		.loc 1 112 2 is_stmt 1 view .LVU154
 112:Core/Src/bmp180_for_stm32_hal.c **** 	int32_t x1 = (ut - _bmp180_eeprom.BMP180_AC6) * _bmp180_eeprom.BMP180_AC5 / (1 << 15);
 676              		.loc 1 112 15 is_stmt 0 view .LVU155
 677 002e FFF7FEFF 		bl	BMP180_GetUP
 678              	.LVL63:
 679 0032 0146     		mov	r1, r0
 680              	.LVL64:
 113:Core/Src/bmp180_for_stm32_hal.c **** 	int32_t x2 = (_bmp180_eeprom.BMP180_MC * (1 << 11)) / (x1 + _bmp180_eeprom.BMP180_MD);
 681              		.loc 1 113 2 is_stmt 1 view .LVU156
 113:Core/Src/bmp180_for_stm32_hal.c **** 	int32_t x2 = (_bmp180_eeprom.BMP180_MC * (1 << 11)) / (x1 + _bmp180_eeprom.BMP180_MD);
 682              		.loc 1 113 35 is_stmt 0 view .LVU157
 683 0034 564A     		ldr	r2, .L65+12
 684 0036 5389     		ldrh	r3, [r2, #10]
 113:Core/Src/bmp180_for_stm32_hal.c **** 	int32_t x2 = (_bmp180_eeprom.BMP180_MC * (1 << 11)) / (x1 + _bmp180_eeprom.BMP180_MD);
 685              		.loc 1 113 19 view .LVU158
 686 0038 E31A     		subs	r3, r4, r3
 113:Core/Src/bmp180_for_stm32_hal.c **** 	int32_t x2 = (_bmp180_eeprom.BMP180_MC * (1 << 11)) / (x1 + _bmp180_eeprom.BMP180_MD);
 687              		.loc 1 113 64 view .LVU159
 688 003a 1289     		ldrh	r2, [r2, #8]
 113:Core/Src/bmp180_for_stm32_hal.c **** 	int32_t x2 = (_bmp180_eeprom.BMP180_MC * (1 << 11)) / (x1 + _bmp180_eeprom.BMP180_MD);
 689              		.loc 1 113 48 view .LVU160
 690 003c 02FB03F3 		mul	r3, r2, r3
 113:Core/Src/bmp180_for_stm32_hal.c **** 	int32_t x2 = (_bmp180_eeprom.BMP180_MC * (1 << 11)) / (x1 + _bmp180_eeprom.BMP180_MD);
 691              		.loc 1 113 10 view .LVU161
 692 0040 002B     		cmp	r3, #0
 693 0042 74DB     		blt	.L53
 694              	.L38:
 695              	.LVL65:
 114:Core/Src/bmp180_for_stm32_hal.c **** 	int32_t b5 = x1 + x2;
 696              		.loc 1 114 2 is_stmt 1 view .LVU162
 114:Core/Src/bmp180_for_stm32_hal.c **** 	int32_t b5 = x1 + x2;
ARM GAS  C:\Users\pc\AppData\Local\Temp\ccv6eqSb.s 			page 17


 697              		.loc 1 114 30 is_stmt 0 view .LVU163
 698 0044 524A     		ldr	r2, .L65+12
 699 0046 B2F91200 		ldrsh	r0, [r2, #18]
 700              	.LVL66:
 114:Core/Src/bmp180_for_stm32_hal.c **** 	int32_t b5 = x1 + x2;
 701              		.loc 1 114 41 view .LVU164
 702 004a C002     		lsls	r0, r0, #11
 114:Core/Src/bmp180_for_stm32_hal.c **** 	int32_t b5 = x1 + x2;
 703              		.loc 1 114 76 view .LVU165
 704 004c B2F91440 		ldrsh	r4, [r2, #20]
 705              	.LVL67:
 114:Core/Src/bmp180_for_stm32_hal.c **** 	int32_t b5 = x1 + x2;
 706              		.loc 1 114 60 view .LVU166
 707 0050 04EBE334 		add	r4, r4, r3, asr #15
 114:Core/Src/bmp180_for_stm32_hal.c **** 	int32_t b5 = x1 + x2;
 708              		.loc 1 114 10 view .LVU167
 709 0054 90FBF4F0 		sdiv	r0, r0, r4
 710              	.LVL68:
 115:Core/Src/bmp180_for_stm32_hal.c **** 	int32_t b6 = b5 - 4000;
 711              		.loc 1 115 2 is_stmt 1 view .LVU168
 115:Core/Src/bmp180_for_stm32_hal.c **** 	int32_t b6 = b5 - 4000;
 712              		.loc 1 115 10 is_stmt 0 view .LVU169
 713 0058 00EBE330 		add	r0, r0, r3, asr #15
 714              	.LVL69:
 116:Core/Src/bmp180_for_stm32_hal.c **** 	x1 = (_bmp180_eeprom.BMP180_B2 * (b6 * b6 / (1 << 12))) / (1 << 11);
 715              		.loc 1 116 2 is_stmt 1 view .LVU170
 116:Core/Src/bmp180_for_stm32_hal.c **** 	x1 = (_bmp180_eeprom.BMP180_B2 * (b6 * b6 / (1 << 12))) / (1 << 11);
 716              		.loc 1 116 10 is_stmt 0 view .LVU171
 717 005c A0F57A60 		sub	r0, r0, #4000
 718              	.LVL70:
 117:Core/Src/bmp180_for_stm32_hal.c **** 	x2 = _bmp180_eeprom.BMP180_AC2 * b6 / (1 << 11);
 719              		.loc 1 117 2 is_stmt 1 view .LVU172
 117:Core/Src/bmp180_for_stm32_hal.c **** 	x2 = _bmp180_eeprom.BMP180_AC2 * b6 / (1 << 11);
 720              		.loc 1 117 22 is_stmt 0 view .LVU173
 721 0060 B2F90E30 		ldrsh	r3, [r2, #14]
 722              	.LVL71:
 117:Core/Src/bmp180_for_stm32_hal.c **** 	x2 = _bmp180_eeprom.BMP180_AC2 * b6 / (1 << 11);
 723              		.loc 1 117 39 view .LVU174
 724 0064 00FB00FE 		mul	lr, r0, r0
 117:Core/Src/bmp180_for_stm32_hal.c **** 	x2 = _bmp180_eeprom.BMP180_AC2 * b6 / (1 << 11);
 725              		.loc 1 117 44 view .LVU175
 726 0068 BEF1000F 		cmp	lr, #0
 727 006c 63DB     		blt	.L54
 728              	.L39:
 729 006e 4FEA2E3E 		asr	lr, lr, #12
 117:Core/Src/bmp180_for_stm32_hal.c **** 	x2 = _bmp180_eeprom.BMP180_AC2 * b6 / (1 << 11);
 730              		.loc 1 117 33 view .LVU176
 731 0072 0EFB03F3 		mul	r3, lr, r3
 117:Core/Src/bmp180_for_stm32_hal.c **** 	x2 = _bmp180_eeprom.BMP180_AC2 * b6 / (1 << 11);
 732              		.loc 1 117 5 view .LVU177
 733 0076 002B     		cmp	r3, #0
 734 0078 60DB     		blt	.L55
 735              	.L40:
 736 007a DB12     		asrs	r3, r3, #11
 737              	.LVL72:
 118:Core/Src/bmp180_for_stm32_hal.c **** 	int32_t x3 = x1 + x2;
 738              		.loc 1 118 2 is_stmt 1 view .LVU178
ARM GAS  C:\Users\pc\AppData\Local\Temp\ccv6eqSb.s 			page 18


 118:Core/Src/bmp180_for_stm32_hal.c **** 	int32_t x3 = x1 + x2;
 739              		.loc 1 118 21 is_stmt 0 view .LVU179
 740 007c 444A     		ldr	r2, .L65+12
 741 007e B2F90220 		ldrsh	r2, [r2, #2]
 118:Core/Src/bmp180_for_stm32_hal.c **** 	int32_t x3 = x1 + x2;
 742              		.loc 1 118 33 view .LVU180
 743 0082 00FB02F2 		mul	r2, r0, r2
 118:Core/Src/bmp180_for_stm32_hal.c **** 	int32_t x3 = x1 + x2;
 744              		.loc 1 118 5 view .LVU181
 745 0086 002A     		cmp	r2, #0
 746 0088 5BDB     		blt	.L56
 747              	.L41:
 748              	.LVL73:
 119:Core/Src/bmp180_for_stm32_hal.c **** 	int32_t b3 = (((_bmp180_eeprom.BMP180_AC1 * 4 + x3) << _bmp180_oss) + 2) / 4;
 749              		.loc 1 119 2 is_stmt 1 view .LVU182
 119:Core/Src/bmp180_for_stm32_hal.c **** 	int32_t b3 = (((_bmp180_eeprom.BMP180_AC1 * 4 + x3) << _bmp180_oss) + 2) / 4;
 750              		.loc 1 119 10 is_stmt 0 view .LVU183
 751 008a 03EBE223 		add	r3, r3, r2, asr #11
 752              	.LVL74:
 120:Core/Src/bmp180_for_stm32_hal.c **** 	x1 = _bmp180_eeprom.BMP180_AC3 * b6 / (1 << 13);
 753              		.loc 1 120 2 is_stmt 1 view .LVU184
 120:Core/Src/bmp180_for_stm32_hal.c **** 	x1 = _bmp180_eeprom.BMP180_AC3 * b6 / (1 << 13);
 754              		.loc 1 120 32 is_stmt 0 view .LVU185
 755 008e 404A     		ldr	r2, .L65+12
 756              	.LVL75:
 120:Core/Src/bmp180_for_stm32_hal.c **** 	x1 = _bmp180_eeprom.BMP180_AC3 * b6 / (1 << 13);
 757              		.loc 1 120 32 view .LVU186
 758 0090 B2F90020 		ldrsh	r2, [r2]
 120:Core/Src/bmp180_for_stm32_hal.c **** 	x1 = _bmp180_eeprom.BMP180_AC3 * b6 / (1 << 13);
 759              		.loc 1 120 48 view .LVU187
 760 0094 03EB8203 		add	r3, r3, r2, lsl #2
 761              	.LVL76:
 120:Core/Src/bmp180_for_stm32_hal.c **** 	x1 = _bmp180_eeprom.BMP180_AC3 * b6 / (1 << 13);
 762              		.loc 1 120 54 view .LVU188
 763 0098 3A4A     		ldr	r2, .L65
 764 009a 92F800C0 		ldrb	ip, [r2]	@ zero_extendqisi2
 765 009e 03FA0CF3 		lsl	r3, r3, ip
 120:Core/Src/bmp180_for_stm32_hal.c **** 	x1 = _bmp180_eeprom.BMP180_AC3 * b6 / (1 << 13);
 766              		.loc 1 120 10 view .LVU189
 767 00a2 0233     		adds	r3, r3, #2
 768 00a4 50D4     		bmi	.L57
 769              	.L42:
 770 00a6 9A10     		asrs	r2, r3, #2
 771              	.LVL77:
 121:Core/Src/bmp180_for_stm32_hal.c **** 	x2 = (_bmp180_eeprom.BMP180_B1 * (b6 * b6 / (1 << 12))) / (1 << 16);
 772              		.loc 1 121 2 is_stmt 1 view .LVU190
 121:Core/Src/bmp180_for_stm32_hal.c **** 	x2 = (_bmp180_eeprom.BMP180_B1 * (b6 * b6 / (1 << 12))) / (1 << 16);
 773              		.loc 1 121 21 is_stmt 0 view .LVU191
 774 00a8 394B     		ldr	r3, .L65+12
 775 00aa B3F90430 		ldrsh	r3, [r3, #4]
 121:Core/Src/bmp180_for_stm32_hal.c **** 	x2 = (_bmp180_eeprom.BMP180_B1 * (b6 * b6 / (1 << 12))) / (1 << 16);
 776              		.loc 1 121 33 view .LVU192
 777 00ae 00FB03F3 		mul	r3, r0, r3
 121:Core/Src/bmp180_for_stm32_hal.c **** 	x2 = (_bmp180_eeprom.BMP180_B1 * (b6 * b6 / (1 << 12))) / (1 << 16);
 778              		.loc 1 121 5 view .LVU193
 779 00b2 002B     		cmp	r3, #0
 780 00b4 4ADB     		blt	.L58
ARM GAS  C:\Users\pc\AppData\Local\Temp\ccv6eqSb.s 			page 19


 781              	.L43:
 782 00b6 5B13     		asrs	r3, r3, #13
 783              	.LVL78:
 122:Core/Src/bmp180_for_stm32_hal.c **** 	x3 = ((x1 + x2) + 2) / 4;
 784              		.loc 1 122 2 is_stmt 1 view .LVU194
 122:Core/Src/bmp180_for_stm32_hal.c **** 	x3 = ((x1 + x2) + 2) / 4;
 785              		.loc 1 122 22 is_stmt 0 view .LVU195
 786 00b8 3548     		ldr	r0, .L65+12
 787              	.LVL79:
 122:Core/Src/bmp180_for_stm32_hal.c **** 	x3 = ((x1 + x2) + 2) / 4;
 788              		.loc 1 122 22 view .LVU196
 789 00ba B0F90C00 		ldrsh	r0, [r0, #12]
 122:Core/Src/bmp180_for_stm32_hal.c **** 	x3 = ((x1 + x2) + 2) / 4;
 790              		.loc 1 122 33 view .LVU197
 791 00be 00FB0EFE 		mul	lr, r0, lr
 122:Core/Src/bmp180_for_stm32_hal.c **** 	x3 = ((x1 + x2) + 2) / 4;
 792              		.loc 1 122 5 view .LVU198
 793 00c2 BEF1000F 		cmp	lr, #0
 794 00c6 45DB     		blt	.L59
 795              	.L44:
 796              	.LVL80:
 123:Core/Src/bmp180_for_stm32_hal.c **** 	uint32_t b4 = _bmp180_eeprom.BMP180_AC4 * (uint32_t) (x3 + 32768) / (1 << 15);
 797              		.loc 1 123 2 is_stmt 1 view .LVU199
 123:Core/Src/bmp180_for_stm32_hal.c **** 	uint32_t b4 = _bmp180_eeprom.BMP180_AC4 * (uint32_t) (x3 + 32768) / (1 << 15);
 798              		.loc 1 123 12 is_stmt 0 view .LVU200
 799 00c8 03EB2E43 		add	r3, r3, lr, asr #16
 800              	.LVL81:
 123:Core/Src/bmp180_for_stm32_hal.c **** 	uint32_t b4 = _bmp180_eeprom.BMP180_AC4 * (uint32_t) (x3 + 32768) / (1 << 15);
 801              		.loc 1 123 5 view .LVU201
 802 00cc 0233     		adds	r3, r3, #2
 803 00ce 46D4     		bmi	.L60
 804              	.L45:
 805 00d0 9B10     		asrs	r3, r3, #2
 806              	.LVL82:
 124:Core/Src/bmp180_for_stm32_hal.c **** 	uint32_t b7 = ((uint32_t) up - b3) * (50000 >> _bmp180_oss);
 807              		.loc 1 124 2 is_stmt 1 view .LVU202
 124:Core/Src/bmp180_for_stm32_hal.c **** 	uint32_t b7 = ((uint32_t) up - b3) * (50000 >> _bmp180_oss);
 808              		.loc 1 124 30 is_stmt 0 view .LVU203
 809 00d2 2F48     		ldr	r0, .L65+12
 810 00d4 C088     		ldrh	r0, [r0, #6]
 124:Core/Src/bmp180_for_stm32_hal.c **** 	uint32_t b7 = ((uint32_t) up - b3) * (50000 >> _bmp180_oss);
 811              		.loc 1 124 59 view .LVU204
 812 00d6 03F50043 		add	r3, r3, #32768
 813              	.LVL83:
 124:Core/Src/bmp180_for_stm32_hal.c **** 	uint32_t b7 = ((uint32_t) up - b3) * (50000 >> _bmp180_oss);
 814              		.loc 1 124 42 view .LVU205
 815 00da 00FB03F3 		mul	r3, r0, r3
 816              	.LVL84:
 124:Core/Src/bmp180_for_stm32_hal.c **** 	uint32_t b7 = ((uint32_t) up - b3) * (50000 >> _bmp180_oss);
 817              		.loc 1 124 11 view .LVU206
 818 00de DB0B     		lsrs	r3, r3, #15
 819              	.LVL85:
 125:Core/Src/bmp180_for_stm32_hal.c **** 	int32_t p;
 820              		.loc 1 125 2 is_stmt 1 view .LVU207
 125:Core/Src/bmp180_for_stm32_hal.c **** 	int32_t p;
 821              		.loc 1 125 31 is_stmt 0 view .LVU208
 822 00e0 881A     		subs	r0, r1, r2
ARM GAS  C:\Users\pc\AppData\Local\Temp\ccv6eqSb.s 			page 20


 125:Core/Src/bmp180_for_stm32_hal.c **** 	int32_t p;
 823              		.loc 1 125 46 view .LVU209
 824 00e2 4CF25032 		movw	r2, #50000
 825              	.LVL86:
 125:Core/Src/bmp180_for_stm32_hal.c **** 	int32_t p;
 826              		.loc 1 125 46 view .LVU210
 827 00e6 42FA0CF2 		asr	r2, r2, ip
 125:Core/Src/bmp180_for_stm32_hal.c **** 	int32_t p;
 828              		.loc 1 125 11 view .LVU211
 829 00ea 02FB00F0 		mul	r0, r2, r0
 830              	.LVL87:
 126:Core/Src/bmp180_for_stm32_hal.c **** 	if (b7 < 0x80000000)
 831              		.loc 1 126 2 is_stmt 1 view .LVU212
 127:Core/Src/bmp180_for_stm32_hal.c **** 		p = (b7 * 2) / b4;
 832              		.loc 1 127 2 view .LVU213
 127:Core/Src/bmp180_for_stm32_hal.c **** 		p = (b7 * 2) / b4;
 833              		.loc 1 127 5 is_stmt 0 view .LVU214
 834 00ee 0028     		cmp	r0, #0
 835 00f0 37DB     		blt	.L46
 128:Core/Src/bmp180_for_stm32_hal.c **** 	else
 836              		.loc 1 128 3 is_stmt 1 view .LVU215
 128:Core/Src/bmp180_for_stm32_hal.c **** 	else
 837              		.loc 1 128 11 is_stmt 0 view .LVU216
 838 00f2 4000     		lsls	r0, r0, #1
 839              	.LVL88:
 128:Core/Src/bmp180_for_stm32_hal.c **** 	else
 840              		.loc 1 128 16 view .LVU217
 841 00f4 B0FBF3F0 		udiv	r0, r0, r3
 842              	.LVL89:
 843              	.L47:
 131:Core/Src/bmp180_for_stm32_hal.c **** 	x1 = (x1 * 3038) / (1 << 16);
 844              		.loc 1 131 2 is_stmt 1 view .LVU218
 131:Core/Src/bmp180_for_stm32_hal.c **** 	x1 = (x1 * 3038) / (1 << 16);
 845              		.loc 1 131 10 is_stmt 0 view .LVU219
 846 00f8 0346     		mov	r3, r0
 847              	.LVL90:
 131:Core/Src/bmp180_for_stm32_hal.c **** 	x1 = (x1 * 3038) / (1 << 16);
 848              		.loc 1 131 10 view .LVU220
 849 00fa 0028     		cmp	r0, #0
 850 00fc 35DB     		blt	.L61
 851              	.L48:
 131:Core/Src/bmp180_for_stm32_hal.c **** 	x1 = (x1 * 3038) / (1 << 16);
 852              		.loc 1 131 10 view .LVU221
 853 00fe 1B12     		asrs	r3, r3, #8
 131:Core/Src/bmp180_for_stm32_hal.c **** 	x1 = (x1 * 3038) / (1 << 16);
 854              		.loc 1 131 5 view .LVU222
 855 0100 03FB03F3 		mul	r3, r3, r3
 856              	.LVL91:
 132:Core/Src/bmp180_for_stm32_hal.c **** 	x2 = (-7357 * p) / (1 << 16);
 857              		.loc 1 132 2 is_stmt 1 view .LVU223
 132:Core/Src/bmp180_for_stm32_hal.c **** 	x2 = (-7357 * p) / (1 << 16);
 858              		.loc 1 132 11 is_stmt 0 view .LVU224
 859 0104 40F6DE32 		movw	r2, #3038
 132:Core/Src/bmp180_for_stm32_hal.c **** 	x2 = (-7357 * p) / (1 << 16);
 860              		.loc 1 132 11 view .LVU225
 861 0108 02FB03F3 		mul	r3, r2, r3
 862              	.LVL92:
ARM GAS  C:\Users\pc\AppData\Local\Temp\ccv6eqSb.s 			page 21


 132:Core/Src/bmp180_for_stm32_hal.c **** 	x2 = (-7357 * p) / (1 << 16);
 863              		.loc 1 132 5 view .LVU226
 864 010c 002B     		cmp	r3, #0
 865 010e 2FDB     		blt	.L62
 866              	.L49:
 867 0110 1B14     		asrs	r3, r3, #16
 868              	.LVL93:
 133:Core/Src/bmp180_for_stm32_hal.c **** 	p = p + (x1 + x2 + 3791) / (1 << 4);
 869              		.loc 1 133 2 is_stmt 1 view .LVU227
 133:Core/Src/bmp180_for_stm32_hal.c **** 	p = p + (x1 + x2 + 3791) / (1 << 4);
 870              		.loc 1 133 14 is_stmt 0 view .LVU228
 871 0112 204A     		ldr	r2, .L65+16
 872 0114 00FB02F2 		mul	r2, r0, r2
 133:Core/Src/bmp180_for_stm32_hal.c **** 	p = p + (x1 + x2 + 3791) / (1 << 4);
 873              		.loc 1 133 5 view .LVU229
 874 0118 002A     		cmp	r2, #0
 875 011a 2DDB     		blt	.L63
 876              	.L50:
 877              	.LVL94:
 134:Core/Src/bmp180_for_stm32_hal.c **** 	return p;
 878              		.loc 1 134 2 is_stmt 1 view .LVU230
 134:Core/Src/bmp180_for_stm32_hal.c **** 	return p;
 879              		.loc 1 134 14 is_stmt 0 view .LVU231
 880 011c 03EB2243 		add	r3, r3, r2, asr #16
 881              	.LVL95:
 134:Core/Src/bmp180_for_stm32_hal.c **** 	return p;
 882              		.loc 1 134 19 view .LVU232
 883 0120 03F6CF63 		addw	r3, r3, #3791
 134:Core/Src/bmp180_for_stm32_hal.c **** 	return p;
 884              		.loc 1 134 27 view .LVU233
 885 0124 002B     		cmp	r3, #0
 886 0126 2BDB     		blt	.L64
 887              	.L51:
 888              	.LVL96:
 135:Core/Src/bmp180_for_stm32_hal.c **** }
 889              		.loc 1 135 2 is_stmt 1 view .LVU234
 136:Core/Src/bmp180_for_stm32_hal.c **** 
 890              		.loc 1 136 1 is_stmt 0 view .LVU235
 891 0128 00EB2310 		add	r0, r0, r3, asr #4
 892              	.LVL97:
 136:Core/Src/bmp180_for_stm32_hal.c **** 
 893              		.loc 1 136 1 view .LVU236
 894 012c 38BD     		pop	{r3, r4, r5, pc}
 895              	.LVL98:
 896              	.L53:
 113:Core/Src/bmp180_for_stm32_hal.c **** 	int32_t x2 = (_bmp180_eeprom.BMP180_MC * (1 << 11)) / (x1 + _bmp180_eeprom.BMP180_MD);
 897              		.loc 1 113 10 view .LVU237
 898 012e 03F5FF43 		add	r3, r3, #32640
 899 0132 7F33     		adds	r3, r3, #127
 900 0134 86E7     		b	.L38
 901              	.LVL99:
 902              	.L54:
 117:Core/Src/bmp180_for_stm32_hal.c **** 	x2 = _bmp180_eeprom.BMP180_AC2 * b6 / (1 << 11);
 903              		.loc 1 117 44 view .LVU238
 904 0136 0EF6FF7E 		addw	lr, lr, #4095
 905 013a 98E7     		b	.L39
 906              	.L55:
ARM GAS  C:\Users\pc\AppData\Local\Temp\ccv6eqSb.s 			page 22


 117:Core/Src/bmp180_for_stm32_hal.c **** 	x2 = _bmp180_eeprom.BMP180_AC2 * b6 / (1 << 11);
 907              		.loc 1 117 5 view .LVU239
 908 013c 03F2FF73 		addw	r3, r3, #2047
 909 0140 9BE7     		b	.L40
 910              	.LVL100:
 911              	.L56:
 118:Core/Src/bmp180_for_stm32_hal.c **** 	int32_t x3 = x1 + x2;
 912              		.loc 1 118 5 view .LVU240
 913 0142 02F2FF72 		addw	r2, r2, #2047
 914 0146 A0E7     		b	.L41
 915              	.LVL101:
 916              	.L57:
 120:Core/Src/bmp180_for_stm32_hal.c **** 	x1 = _bmp180_eeprom.BMP180_AC3 * b6 / (1 << 13);
 917              		.loc 1 120 10 view .LVU241
 918 0148 0333     		adds	r3, r3, #3
 919 014a ACE7     		b	.L42
 920              	.LVL102:
 921              	.L58:
 121:Core/Src/bmp180_for_stm32_hal.c **** 	x2 = (_bmp180_eeprom.BMP180_B1 * (b6 * b6 / (1 << 12))) / (1 << 16);
 922              		.loc 1 121 5 view .LVU242
 923 014c 03F5FF53 		add	r3, r3, #8160
 924 0150 1F33     		adds	r3, r3, #31
 925 0152 B0E7     		b	.L43
 926              	.LVL103:
 927              	.L59:
 122:Core/Src/bmp180_for_stm32_hal.c **** 	x3 = ((x1 + x2) + 2) / 4;
 928              		.loc 1 122 5 view .LVU243
 929 0154 0EF57F4E 		add	lr, lr, #65280
 930 0158 0EF1FF0E 		add	lr, lr, #255
 931 015c B4E7     		b	.L44
 932              	.LVL104:
 933              	.L60:
 123:Core/Src/bmp180_for_stm32_hal.c **** 	uint32_t b4 = _bmp180_eeprom.BMP180_AC4 * (uint32_t) (x3 + 32768) / (1 << 15);
 934              		.loc 1 123 5 view .LVU244
 935 015e 0333     		adds	r3, r3, #3
 936 0160 B6E7     		b	.L45
 937              	.LVL105:
 938              	.L46:
 130:Core/Src/bmp180_for_stm32_hal.c **** 	x1 = (p / (1 << 8)) * (p / (1 << 8));
 939              		.loc 1 130 3 is_stmt 1 view .LVU245
 130:Core/Src/bmp180_for_stm32_hal.c **** 	x1 = (p / (1 << 8)) * (p / (1 << 8));
 940              		.loc 1 130 11 is_stmt 0 view .LVU246
 941 0162 B0FBF3F0 		udiv	r0, r0, r3
 942              	.LVL106:
 130:Core/Src/bmp180_for_stm32_hal.c **** 	x1 = (p / (1 << 8)) * (p / (1 << 8));
 943              		.loc 1 130 17 view .LVU247
 944 0166 4000     		lsls	r0, r0, #1
 945              	.LVL107:
 130:Core/Src/bmp180_for_stm32_hal.c **** 	x1 = (p / (1 << 8)) * (p / (1 << 8));
 946              		.loc 1 130 17 view .LVU248
 947 0168 C6E7     		b	.L47
 948              	.LVL108:
 949              	.L61:
 131:Core/Src/bmp180_for_stm32_hal.c **** 	x1 = (x1 * 3038) / (1 << 16);
 950              		.loc 1 131 10 view .LVU249
 951 016a 00F1FF03 		add	r3, r0, #255
 952 016e C6E7     		b	.L48
ARM GAS  C:\Users\pc\AppData\Local\Temp\ccv6eqSb.s 			page 23


 953              	.L62:
 132:Core/Src/bmp180_for_stm32_hal.c **** 	x2 = (-7357 * p) / (1 << 16);
 954              		.loc 1 132 5 view .LVU250
 955 0170 03F57F43 		add	r3, r3, #65280
 956 0174 FF33     		adds	r3, r3, #255
 957 0176 CBE7     		b	.L49
 958              	.LVL109:
 959              	.L63:
 133:Core/Src/bmp180_for_stm32_hal.c **** 	p = p + (x1 + x2 + 3791) / (1 << 4);
 960              		.loc 1 133 5 view .LVU251
 961 0178 02F57F42 		add	r2, r2, #65280
 962 017c FF32     		adds	r2, r2, #255
 963 017e CDE7     		b	.L50
 964              	.LVL110:
 965              	.L64:
 134:Core/Src/bmp180_for_stm32_hal.c **** 	return p;
 966              		.loc 1 134 27 view .LVU252
 967 0180 0F33     		adds	r3, r3, #15
 968 0182 D1E7     		b	.L51
 969              	.L66:
 970              		.align	2
 971              	.L65:
 972 0184 00000000 		.word	_bmp180_oss
 973 0188 00000000 		.word	BMP180_CMD_PRES
 974 018c 00000000 		.word	BMP180_DELAY_PRES
 975 0190 00000000 		.word	_bmp180_eeprom
 976 0194 43E3FFFF 		.word	-7357
 977              		.cfi_endproc
 978              	.LFE137:
 980              		.global	BMP180_DELAY_PRES
 981              		.section	.rodata.BMP180_DELAY_PRES,"a"
 982              		.align	2
 985              	BMP180_DELAY_PRES:
 986 0000 05080E1A 		.ascii	"\005\010\016\032"
 987              		.global	BMP180_CMD_PRES
 988              		.section	.rodata.BMP180_CMD_PRES,"a"
 989              		.align	2
 992              	BMP180_CMD_PRES:
 993 0000 3474B4F4 		.ascii	"4t\264\364"
 994              		.global	BMP180_DELAY_TEMP
 995              		.section	.rodata.BMP180_DELAY_TEMP,"a"
 998              	BMP180_DELAY_TEMP:
 999 0000 05       		.byte	5
 1000              		.global	BMP180_CMD_TEMP
 1001              		.section	.rodata.BMP180_CMD_TEMP,"a"
 1004              	BMP180_CMD_TEMP:
 1005 0000 2E       		.byte	46
 1006              		.global	BMP180_EEPROM_ADDR_LSB
 1007              		.section	.rodata.BMP180_EEPROM_ADDR_LSB,"a"
 1008              		.align	2
 1011              	BMP180_EEPROM_ADDR_LSB:
 1012 0000 ABADAFB1 		.ascii	"\253\255\257\261\263\265\267\271\273\275\277"
 1012      B3B5B7B9 
 1012      BBBDBF
 1013              		.global	BMP180_EEPROM_ADDR_MSB
 1014              		.section	.rodata.BMP180_EEPROM_ADDR_MSB,"a"
 1015              		.align	2
ARM GAS  C:\Users\pc\AppData\Local\Temp\ccv6eqSb.s 			page 24


 1018              	BMP180_EEPROM_ADDR_MSB:
 1019 0000 AAACAEB0 		.ascii	"\252\254\256\260\262\264\266\270\272\274\276"
 1019      B2B4B6B8 
 1019      BABCBE
 1020              		.global	_bmp180_oss
 1021              		.section	.bss._bmp180_oss,"aw",%nobits
 1024              	_bmp180_oss:
 1025 0000 00       		.space	1
 1026              		.global	_bmp180_eeprom
 1027              		.section	.bss._bmp180_eeprom,"aw",%nobits
 1028              		.align	2
 1031              	_bmp180_eeprom:
 1032 0000 00000000 		.space	22
 1032      00000000 
 1032      00000000 
 1032      00000000 
 1032      00000000 
 1033              		.global	_bmp180_ui2c
 1034              		.section	.bss._bmp180_ui2c,"aw",%nobits
 1035              		.align	2
 1038              	_bmp180_ui2c:
 1039 0000 00000000 		.space	4
 1040              		.text
 1041              	.Letext0:
 1042              		.file 2 "c:\\users\\pc\\appdata\\roaming\\code\\user\\globalstorage\\bmd.stm32-for-vscode\\@xpack-
 1043              		.file 3 "c:\\users\\pc\\appdata\\roaming\\code\\user\\globalstorage\\bmd.stm32-for-vscode\\@xpack-
 1044              		.file 4 "Drivers/CMSIS/Device/ST/STM32F4xx/Include/stm32f446xx.h"
 1045              		.file 5 "Drivers/STM32F4xx_HAL_Driver/Inc/stm32f4xx_hal_def.h"
 1046              		.file 6 "Drivers/STM32F4xx_HAL_Driver/Inc/stm32f4xx_hal_dma.h"
 1047              		.file 7 "Drivers/STM32F4xx_HAL_Driver/Inc/stm32f4xx_hal_i2c.h"
 1048              		.file 8 "Core/Inc/bmp180_for_stm32_hal.h"
 1049              		.file 9 "Drivers/STM32F4xx_HAL_Driver/Inc/stm32f4xx_hal.h"
ARM GAS  C:\Users\pc\AppData\Local\Temp\ccv6eqSb.s 			page 25

