ARM GAS  C:\Users\triet\AppData\Local\Temp\ccG8T9H5.s 			page 1


   1              		.cpu cortex-m4
   2              		.arch armv7e-m
   3              		.fpu fpv4-sp-d16
   4              		.eabi_attribute 27, 1
   5              		.eabi_attribute 28, 1
   6              		.eabi_attribute 20, 1
   7              		.eabi_attribute 21, 1
   8              		.eabi_attribute 23, 3
   9              		.eabi_attribute 24, 1
  10              		.eabi_attribute 25, 1
  11              		.eabi_attribute 26, 1
  12              		.eabi_attribute 30, 1
  13              		.eabi_attribute 34, 1
  14              		.eabi_attribute 18, 4
  15              		.file	"main.c"
  16              		.text
  17              	.Ltext0:
  18              		.cfi_sections	.debug_frame
  19              		.section	.text.MX_GPIO_Init,"ax",%progbits
  20              		.align	1
  21              		.syntax unified
  22              		.thumb
  23              		.thumb_func
  25              	MX_GPIO_Init:
  26              	.LFB136:
  27              		.file 1 "Core/Src/main.c"
   1:Core/Src/main.c **** /* USER CODE BEGIN Header */
   2:Core/Src/main.c **** /**
   3:Core/Src/main.c ****   ******************************************************************************
   4:Core/Src/main.c ****   * @file           : main.c
   5:Core/Src/main.c ****   * @brief          : Main program body
   6:Core/Src/main.c ****   ******************************************************************************
   7:Core/Src/main.c ****   * @attention
   8:Core/Src/main.c ****   *
   9:Core/Src/main.c ****   * Copyright (c) 2023 STMicroelectronics.
  10:Core/Src/main.c ****   * All rights reserved.
  11:Core/Src/main.c ****   *
  12:Core/Src/main.c ****   * This software is licensed under terms that can be found in the LICENSE file
  13:Core/Src/main.c ****   * in the root directory of this software component.
  14:Core/Src/main.c ****   * If no LICENSE file comes with this software, it is provided AS-IS.
  15:Core/Src/main.c ****   *
  16:Core/Src/main.c ****   ******************************************************************************
  17:Core/Src/main.c ****   */
  18:Core/Src/main.c **** /* USER CODE END Header */
  19:Core/Src/main.c **** /* Includes ------------------------------------------------------------------*/
  20:Core/Src/main.c **** #include "main.h"
  21:Core/Src/main.c **** 
  22:Core/Src/main.c **** /* Private includes ----------------------------------------------------------*/
  23:Core/Src/main.c **** /* USER CODE BEGIN Includes */
  24:Core/Src/main.c **** #include <mpu6050.h>
  25:Core/Src/main.c **** /* USER CODE END Includes */
  26:Core/Src/main.c **** 
  27:Core/Src/main.c **** /* Private typedef -----------------------------------------------------------*/
  28:Core/Src/main.c **** /* USER CODE BEGIN PTD */
  29:Core/Src/main.c **** 
  30:Core/Src/main.c **** /* USER CODE END PTD */
  31:Core/Src/main.c **** 
ARM GAS  C:\Users\triet\AppData\Local\Temp\ccG8T9H5.s 			page 2


  32:Core/Src/main.c **** /* Private define ------------------------------------------------------------*/
  33:Core/Src/main.c **** /* USER CODE BEGIN PD */
  34:Core/Src/main.c **** 
  35:Core/Src/main.c **** /* USER CODE END PD */
  36:Core/Src/main.c **** 
  37:Core/Src/main.c **** /* Private macro -------------------------------------------------------------*/
  38:Core/Src/main.c **** /* USER CODE BEGIN PM */
  39:Core/Src/main.c **** 
  40:Core/Src/main.c **** /* USER CODE END PM */
  41:Core/Src/main.c **** 
  42:Core/Src/main.c **** /* Private variables ---------------------------------------------------------*/
  43:Core/Src/main.c **** I2C_HandleTypeDef hi2c1;
  44:Core/Src/main.c **** 
  45:Core/Src/main.c **** UART_HandleTypeDef huart1;
  46:Core/Src/main.c **** UART_HandleTypeDef huart2;
  47:Core/Src/main.c **** 
  48:Core/Src/main.c **** /* USER CODE BEGIN PV */
  49:Core/Src/main.c **** mpu6050_t IMU; 
  50:Core/Src/main.c **** char Roll[30];
  51:Core/Src/main.c **** char Pitch[30];
  52:Core/Src/main.c **** /* USER CODE END PV */
  53:Core/Src/main.c **** 
  54:Core/Src/main.c **** /* Private function prototypes -----------------------------------------------*/
  55:Core/Src/main.c **** void SystemClock_Config(void);
  56:Core/Src/main.c **** static void MX_GPIO_Init(void);
  57:Core/Src/main.c **** static void MX_I2C1_Init(void);
  58:Core/Src/main.c **** static void MX_USART1_UART_Init(void);
  59:Core/Src/main.c **** static void MX_USART2_UART_Init(void);
  60:Core/Src/main.c **** /* USER CODE BEGIN PFP */
  61:Core/Src/main.c **** 
  62:Core/Src/main.c **** /* USER CODE END PFP */
  63:Core/Src/main.c **** 
  64:Core/Src/main.c **** /* Private user code ---------------------------------------------------------*/
  65:Core/Src/main.c **** /* USER CODE BEGIN 0 */
  66:Core/Src/main.c **** void HAL_UART_TxCpltCallback(UART_HandleTypeDef *huart)
  67:Core/Src/main.c **** {
  68:Core/Src/main.c ****   HAL_UART_Transmit_IT(&huart2, Roll, sizeof(Roll));
  69:Core/Src/main.c ****   HAL_UART_Transmit_IT(&huart2, Pitch, sizeof(Pitch));
  70:Core/Src/main.c **** }
  71:Core/Src/main.c **** /* USER CODE END 0 */
  72:Core/Src/main.c **** 
  73:Core/Src/main.c **** /**
  74:Core/Src/main.c ****   * @brief  The application entry point.
  75:Core/Src/main.c ****   * @retval int
  76:Core/Src/main.c ****   */
  77:Core/Src/main.c **** int main(void)
  78:Core/Src/main.c **** {
  79:Core/Src/main.c ****   /* USER CODE BEGIN 1 */
  80:Core/Src/main.c **** 
  81:Core/Src/main.c ****   /* USER CODE END 1 */
  82:Core/Src/main.c **** 
  83:Core/Src/main.c ****   /* MCU Configuration--------------------------------------------------------*/
  84:Core/Src/main.c **** 
  85:Core/Src/main.c ****   /* Reset of all peripherals, Initializes the Flash interface and the Systick. */
  86:Core/Src/main.c ****   HAL_Init();
  87:Core/Src/main.c **** 
  88:Core/Src/main.c ****   /* USER CODE BEGIN Init */
ARM GAS  C:\Users\triet\AppData\Local\Temp\ccG8T9H5.s 			page 3


  89:Core/Src/main.c **** 
  90:Core/Src/main.c ****   /* USER CODE END Init */
  91:Core/Src/main.c **** 
  92:Core/Src/main.c ****   /* Configure the system clock */
  93:Core/Src/main.c ****   SystemClock_Config();
  94:Core/Src/main.c **** 
  95:Core/Src/main.c ****   /* USER CODE BEGIN SysInit */
  96:Core/Src/main.c **** 
  97:Core/Src/main.c ****   /* USER CODE END SysInit */
  98:Core/Src/main.c **** 
  99:Core/Src/main.c ****   /* Initialize all configured peripherals */
 100:Core/Src/main.c ****   MX_GPIO_Init();
 101:Core/Src/main.c ****   MX_I2C1_Init();
 102:Core/Src/main.c ****   MX_USART1_UART_Init();
 103:Core/Src/main.c ****   MX_USART2_UART_Init();
 104:Core/Src/main.c ****   /* USER CODE BEGIN 2 */
 105:Core/Src/main.c ****   MPU6050_Init();
 106:Core/Src/main.c ****   for(int callib = 0; callib < 2000 ; callib++)
 107:Core/Src/main.c ****   {
 108:Core/Src/main.c ****     MPU6050_Read(&IMU);
 109:Core/Src/main.c ****     IMU.Gx_Callib += IMU.Gx;
 110:Core/Src/main.c ****     IMU.Gy_Callib += IMU.Gy;
 111:Core/Src/main.c ****     IMU.Gz_Callib += IMU.Gz;
 112:Core/Src/main.c ****   }
 113:Core/Src/main.c ****   IMU.Gx_Callib /= 2000;
 114:Core/Src/main.c ****   IMU.Gy_Callib /= 2000;
 115:Core/Src/main.c ****   IMU.Gz_Callib /= 2000;
 116:Core/Src/main.c **** 
 117:Core/Src/main.c ****   /* USER CODE END 2 */
 118:Core/Src/main.c **** 
 119:Core/Src/main.c ****   /* Infinite loop */
 120:Core/Src/main.c ****   /* USER CODE BEGIN WHILE */
 121:Core/Src/main.c ****   while (1)
 122:Core/Src/main.c ****   {
 123:Core/Src/main.c **** 
 124:Core/Src/main.c ****     MPU6050_Read(&IMU);
 125:Core/Src/main.c ****     IMU.Gx-=IMU.Gx_Callib;
 126:Core/Src/main.c ****     IMU.Gy-=IMU.Gy_Callib;
 127:Core/Src/main.c ****     IMU.Gz-=IMU.Gz_Callib;
 128:Core/Src/main.c ****     /* USER CODE END WHILE */
 129:Core/Src/main.c **** 
 130:Core/Src/main.c ****     /* USER CODE BEGIN 3 */
 131:Core/Src/main.c ****     sprintf(Roll,"Roll: %.2f ",IMU.Roll);
 132:Core/Src/main.c ****     sprintf(Pitch,"Pitch: %.2f ",IMU.Pitch);
 133:Core/Src/main.c ****     HAL_UART_Transmit_IT(&huart2, Roll, sizeof(Roll));
 134:Core/Src/main.c ****     HAL_UART_Transmit_IT(&huart2, Pitch, sizeof(Pitch));
 135:Core/Src/main.c **** 
 136:Core/Src/main.c ****   }
 137:Core/Src/main.c ****   /* USER CODE END 3 */
 138:Core/Src/main.c **** }
 139:Core/Src/main.c **** 
 140:Core/Src/main.c **** /**
 141:Core/Src/main.c ****   * @brief System Clock Configuration
 142:Core/Src/main.c ****   * @retval None
 143:Core/Src/main.c ****   */
 144:Core/Src/main.c **** void SystemClock_Config(void)
 145:Core/Src/main.c **** {
ARM GAS  C:\Users\triet\AppData\Local\Temp\ccG8T9H5.s 			page 4


 146:Core/Src/main.c ****   RCC_OscInitTypeDef RCC_OscInitStruct = {0};
 147:Core/Src/main.c ****   RCC_ClkInitTypeDef RCC_ClkInitStruct = {0};
 148:Core/Src/main.c **** 
 149:Core/Src/main.c ****   /** Configure the main internal regulator output voltage
 150:Core/Src/main.c ****   */
 151:Core/Src/main.c ****   __HAL_RCC_PWR_CLK_ENABLE();
 152:Core/Src/main.c ****   __HAL_PWR_VOLTAGESCALING_CONFIG(PWR_REGULATOR_VOLTAGE_SCALE1);
 153:Core/Src/main.c **** 
 154:Core/Src/main.c ****   /** Initializes the RCC Oscillators according to the specified parameters
 155:Core/Src/main.c ****   * in the RCC_OscInitTypeDef structure.
 156:Core/Src/main.c ****   */
 157:Core/Src/main.c ****   RCC_OscInitStruct.OscillatorType = RCC_OSCILLATORTYPE_HSE;
 158:Core/Src/main.c ****   RCC_OscInitStruct.HSEState = RCC_HSE_ON;
 159:Core/Src/main.c ****   RCC_OscInitStruct.PLL.PLLState = RCC_PLL_ON;
 160:Core/Src/main.c ****   RCC_OscInitStruct.PLL.PLLSource = RCC_PLLSOURCE_HSE;
 161:Core/Src/main.c ****   RCC_OscInitStruct.PLL.PLLM = 4;
 162:Core/Src/main.c ****   RCC_OscInitStruct.PLL.PLLN = 180;
 163:Core/Src/main.c ****   RCC_OscInitStruct.PLL.PLLP = RCC_PLLP_DIV2;
 164:Core/Src/main.c ****   RCC_OscInitStruct.PLL.PLLQ = 2;
 165:Core/Src/main.c ****   RCC_OscInitStruct.PLL.PLLR = 2;
 166:Core/Src/main.c ****   if (HAL_RCC_OscConfig(&RCC_OscInitStruct) != HAL_OK)
 167:Core/Src/main.c ****   {
 168:Core/Src/main.c ****     Error_Handler();
 169:Core/Src/main.c ****   }
 170:Core/Src/main.c **** 
 171:Core/Src/main.c ****   /** Activate the Over-Drive mode
 172:Core/Src/main.c ****   */
 173:Core/Src/main.c ****   if (HAL_PWREx_EnableOverDrive() != HAL_OK)
 174:Core/Src/main.c ****   {
 175:Core/Src/main.c ****     Error_Handler();
 176:Core/Src/main.c ****   }
 177:Core/Src/main.c **** 
 178:Core/Src/main.c ****   /** Initializes the CPU, AHB and APB buses clocks
 179:Core/Src/main.c ****   */
 180:Core/Src/main.c ****   RCC_ClkInitStruct.ClockType = RCC_CLOCKTYPE_HCLK|RCC_CLOCKTYPE_SYSCLK
 181:Core/Src/main.c ****                               |RCC_CLOCKTYPE_PCLK1|RCC_CLOCKTYPE_PCLK2;
 182:Core/Src/main.c ****   RCC_ClkInitStruct.SYSCLKSource = RCC_SYSCLKSOURCE_PLLCLK;
 183:Core/Src/main.c ****   RCC_ClkInitStruct.AHBCLKDivider = RCC_SYSCLK_DIV1;
 184:Core/Src/main.c ****   RCC_ClkInitStruct.APB1CLKDivider = RCC_HCLK_DIV4;
 185:Core/Src/main.c ****   RCC_ClkInitStruct.APB2CLKDivider = RCC_HCLK_DIV2;
 186:Core/Src/main.c **** 
 187:Core/Src/main.c ****   if (HAL_RCC_ClockConfig(&RCC_ClkInitStruct, FLASH_LATENCY_5) != HAL_OK)
 188:Core/Src/main.c ****   {
 189:Core/Src/main.c ****     Error_Handler();
 190:Core/Src/main.c ****   }
 191:Core/Src/main.c **** }
 192:Core/Src/main.c **** 
 193:Core/Src/main.c **** /**
 194:Core/Src/main.c ****   * @brief I2C1 Initialization Function
 195:Core/Src/main.c ****   * @param None
 196:Core/Src/main.c ****   * @retval None
 197:Core/Src/main.c ****   */
 198:Core/Src/main.c **** static void MX_I2C1_Init(void)
 199:Core/Src/main.c **** {
 200:Core/Src/main.c **** 
 201:Core/Src/main.c ****   /* USER CODE BEGIN I2C1_Init 0 */
 202:Core/Src/main.c **** 
ARM GAS  C:\Users\triet\AppData\Local\Temp\ccG8T9H5.s 			page 5


 203:Core/Src/main.c ****   /* USER CODE END I2C1_Init 0 */
 204:Core/Src/main.c **** 
 205:Core/Src/main.c ****   /* USER CODE BEGIN I2C1_Init 1 */
 206:Core/Src/main.c **** 
 207:Core/Src/main.c ****   /* USER CODE END I2C1_Init 1 */
 208:Core/Src/main.c ****   hi2c1.Instance = I2C1;
 209:Core/Src/main.c ****   hi2c1.Init.ClockSpeed = 100000;
 210:Core/Src/main.c ****   hi2c1.Init.DutyCycle = I2C_DUTYCYCLE_2;
 211:Core/Src/main.c ****   hi2c1.Init.OwnAddress1 = 0;
 212:Core/Src/main.c ****   hi2c1.Init.AddressingMode = I2C_ADDRESSINGMODE_7BIT;
 213:Core/Src/main.c ****   hi2c1.Init.DualAddressMode = I2C_DUALADDRESS_DISABLE;
 214:Core/Src/main.c ****   hi2c1.Init.OwnAddress2 = 0;
 215:Core/Src/main.c ****   hi2c1.Init.GeneralCallMode = I2C_GENERALCALL_DISABLE;
 216:Core/Src/main.c ****   hi2c1.Init.NoStretchMode = I2C_NOSTRETCH_DISABLE;
 217:Core/Src/main.c ****   if (HAL_I2C_Init(&hi2c1) != HAL_OK)
 218:Core/Src/main.c ****   {
 219:Core/Src/main.c ****     Error_Handler();
 220:Core/Src/main.c ****   }
 221:Core/Src/main.c ****   /* USER CODE BEGIN I2C1_Init 2 */
 222:Core/Src/main.c **** 
 223:Core/Src/main.c ****   /* USER CODE END I2C1_Init 2 */
 224:Core/Src/main.c **** 
 225:Core/Src/main.c **** }
 226:Core/Src/main.c **** 
 227:Core/Src/main.c **** /**
 228:Core/Src/main.c ****   * @brief USART1 Initialization Function
 229:Core/Src/main.c ****   * @param None
 230:Core/Src/main.c ****   * @retval None
 231:Core/Src/main.c ****   */
 232:Core/Src/main.c **** static void MX_USART1_UART_Init(void)
 233:Core/Src/main.c **** {
 234:Core/Src/main.c **** 
 235:Core/Src/main.c ****   /* USER CODE BEGIN USART1_Init 0 */
 236:Core/Src/main.c **** 
 237:Core/Src/main.c ****   /* USER CODE END USART1_Init 0 */
 238:Core/Src/main.c **** 
 239:Core/Src/main.c ****   /* USER CODE BEGIN USART1_Init 1 */
 240:Core/Src/main.c **** 
 241:Core/Src/main.c ****   /* USER CODE END USART1_Init 1 */
 242:Core/Src/main.c ****   huart1.Instance = USART1;
 243:Core/Src/main.c ****   huart1.Init.BaudRate = 115200;
 244:Core/Src/main.c ****   huart1.Init.WordLength = UART_WORDLENGTH_8B;
 245:Core/Src/main.c ****   huart1.Init.StopBits = UART_STOPBITS_1;
 246:Core/Src/main.c ****   huart1.Init.Parity = UART_PARITY_NONE;
 247:Core/Src/main.c ****   huart1.Init.Mode = UART_MODE_TX_RX;
 248:Core/Src/main.c ****   huart1.Init.HwFlowCtl = UART_HWCONTROL_NONE;
 249:Core/Src/main.c ****   huart1.Init.OverSampling = UART_OVERSAMPLING_16;
 250:Core/Src/main.c ****   if (HAL_UART_Init(&huart1) != HAL_OK)
 251:Core/Src/main.c ****   {
 252:Core/Src/main.c ****     Error_Handler();
 253:Core/Src/main.c ****   }
 254:Core/Src/main.c ****   /* USER CODE BEGIN USART1_Init 2 */
 255:Core/Src/main.c **** 
 256:Core/Src/main.c ****   /* USER CODE END USART1_Init 2 */
 257:Core/Src/main.c **** 
 258:Core/Src/main.c **** }
 259:Core/Src/main.c **** 
ARM GAS  C:\Users\triet\AppData\Local\Temp\ccG8T9H5.s 			page 6


 260:Core/Src/main.c **** /**
 261:Core/Src/main.c ****   * @brief USART2 Initialization Function
 262:Core/Src/main.c ****   * @param None
 263:Core/Src/main.c ****   * @retval None
 264:Core/Src/main.c ****   */
 265:Core/Src/main.c **** static void MX_USART2_UART_Init(void)
 266:Core/Src/main.c **** {
 267:Core/Src/main.c **** 
 268:Core/Src/main.c ****   /* USER CODE BEGIN USART2_Init 0 */
 269:Core/Src/main.c **** 
 270:Core/Src/main.c ****   /* USER CODE END USART2_Init 0 */
 271:Core/Src/main.c **** 
 272:Core/Src/main.c ****   /* USER CODE BEGIN USART2_Init 1 */
 273:Core/Src/main.c **** 
 274:Core/Src/main.c ****   /* USER CODE END USART2_Init 1 */
 275:Core/Src/main.c ****   huart2.Instance = USART2;
 276:Core/Src/main.c ****   huart2.Init.BaudRate = 115200;
 277:Core/Src/main.c ****   huart2.Init.WordLength = UART_WORDLENGTH_8B;
 278:Core/Src/main.c ****   huart2.Init.StopBits = UART_STOPBITS_1;
 279:Core/Src/main.c ****   huart2.Init.Parity = UART_PARITY_NONE;
 280:Core/Src/main.c ****   huart2.Init.Mode = UART_MODE_TX_RX;
 281:Core/Src/main.c ****   huart2.Init.HwFlowCtl = UART_HWCONTROL_NONE;
 282:Core/Src/main.c ****   huart2.Init.OverSampling = UART_OVERSAMPLING_16;
 283:Core/Src/main.c ****   if (HAL_UART_Init(&huart2) != HAL_OK)
 284:Core/Src/main.c ****   {
 285:Core/Src/main.c ****     Error_Handler();
 286:Core/Src/main.c ****   }
 287:Core/Src/main.c ****   /* USER CODE BEGIN USART2_Init 2 */
 288:Core/Src/main.c **** 
 289:Core/Src/main.c ****   /* USER CODE END USART2_Init 2 */
 290:Core/Src/main.c **** 
 291:Core/Src/main.c **** }
 292:Core/Src/main.c **** 
 293:Core/Src/main.c **** /**
 294:Core/Src/main.c ****   * @brief GPIO Initialization Function
 295:Core/Src/main.c ****   * @param None
 296:Core/Src/main.c ****   * @retval None
 297:Core/Src/main.c ****   */
 298:Core/Src/main.c **** static void MX_GPIO_Init(void)
 299:Core/Src/main.c **** {
  28              		.loc 1 299 1 view -0
  29              		.cfi_startproc
  30              		@ args = 0, pretend = 0, frame = 16
  31              		@ frame_needed = 0, uses_anonymous_args = 0
  32              		@ link register save eliminated.
  33 0000 84B0     		sub	sp, sp, #16
  34              	.LCFI0:
  35              		.cfi_def_cfa_offset 16
 300:Core/Src/main.c **** /* USER CODE BEGIN MX_GPIO_Init_1 */
 301:Core/Src/main.c **** /* USER CODE END MX_GPIO_Init_1 */
 302:Core/Src/main.c **** 
 303:Core/Src/main.c ****   /* GPIO Ports Clock Enable */
 304:Core/Src/main.c ****   __HAL_RCC_GPIOH_CLK_ENABLE();
  36              		.loc 1 304 3 view .LVU1
  37              	.LBB4:
  38              		.loc 1 304 3 view .LVU2
  39 0002 0022     		movs	r2, #0
ARM GAS  C:\Users\triet\AppData\Local\Temp\ccG8T9H5.s 			page 7


  40 0004 0192     		str	r2, [sp, #4]
  41              		.loc 1 304 3 view .LVU3
  42 0006 104B     		ldr	r3, .L3
  43 0008 196B     		ldr	r1, [r3, #48]
  44 000a 41F08001 		orr	r1, r1, #128
  45 000e 1963     		str	r1, [r3, #48]
  46              		.loc 1 304 3 view .LVU4
  47 0010 196B     		ldr	r1, [r3, #48]
  48 0012 01F08001 		and	r1, r1, #128
  49 0016 0191     		str	r1, [sp, #4]
  50              		.loc 1 304 3 view .LVU5
  51 0018 0199     		ldr	r1, [sp, #4]
  52              	.LBE4:
  53              		.loc 1 304 3 view .LVU6
 305:Core/Src/main.c ****   __HAL_RCC_GPIOA_CLK_ENABLE();
  54              		.loc 1 305 3 view .LVU7
  55              	.LBB5:
  56              		.loc 1 305 3 view .LVU8
  57 001a 0292     		str	r2, [sp, #8]
  58              		.loc 1 305 3 view .LVU9
  59 001c 196B     		ldr	r1, [r3, #48]
  60 001e 41F00101 		orr	r1, r1, #1
  61 0022 1963     		str	r1, [r3, #48]
  62              		.loc 1 305 3 view .LVU10
  63 0024 196B     		ldr	r1, [r3, #48]
  64 0026 01F00101 		and	r1, r1, #1
  65 002a 0291     		str	r1, [sp, #8]
  66              		.loc 1 305 3 view .LVU11
  67 002c 0299     		ldr	r1, [sp, #8]
  68              	.LBE5:
  69              		.loc 1 305 3 view .LVU12
 306:Core/Src/main.c ****   __HAL_RCC_GPIOB_CLK_ENABLE();
  70              		.loc 1 306 3 view .LVU13
  71              	.LBB6:
  72              		.loc 1 306 3 view .LVU14
  73 002e 0392     		str	r2, [sp, #12]
  74              		.loc 1 306 3 view .LVU15
  75 0030 1A6B     		ldr	r2, [r3, #48]
  76 0032 42F00202 		orr	r2, r2, #2
  77 0036 1A63     		str	r2, [r3, #48]
  78              		.loc 1 306 3 view .LVU16
  79 0038 1B6B     		ldr	r3, [r3, #48]
  80 003a 03F00203 		and	r3, r3, #2
  81 003e 0393     		str	r3, [sp, #12]
  82              		.loc 1 306 3 view .LVU17
  83 0040 039B     		ldr	r3, [sp, #12]
  84              	.LBE6:
  85              		.loc 1 306 3 view .LVU18
 307:Core/Src/main.c **** 
 308:Core/Src/main.c **** /* USER CODE BEGIN MX_GPIO_Init_2 */
 309:Core/Src/main.c **** /* USER CODE END MX_GPIO_Init_2 */
 310:Core/Src/main.c **** }
  86              		.loc 1 310 1 is_stmt 0 view .LVU19
  87 0042 04B0     		add	sp, sp, #16
  88              	.LCFI1:
  89              		.cfi_def_cfa_offset 0
  90              		@ sp needed
ARM GAS  C:\Users\triet\AppData\Local\Temp\ccG8T9H5.s 			page 8


  91 0044 7047     		bx	lr
  92              	.L4:
  93 0046 00BF     		.align	2
  94              	.L3:
  95 0048 00380240 		.word	1073887232
  96              		.cfi_endproc
  97              	.LFE136:
  99              		.section	.text.HAL_UART_TxCpltCallback,"ax",%progbits
 100              		.align	1
 101              		.global	HAL_UART_TxCpltCallback
 102              		.syntax unified
 103              		.thumb
 104              		.thumb_func
 106              	HAL_UART_TxCpltCallback:
 107              	.LVL0:
 108              	.LFB130:
  67:Core/Src/main.c ****   HAL_UART_Transmit_IT(&huart2, Roll, sizeof(Roll));
 109              		.loc 1 67 1 is_stmt 1 view -0
 110              		.cfi_startproc
 111              		@ args = 0, pretend = 0, frame = 0
 112              		@ frame_needed = 0, uses_anonymous_args = 0
  67:Core/Src/main.c ****   HAL_UART_Transmit_IT(&huart2, Roll, sizeof(Roll));
 113              		.loc 1 67 1 is_stmt 0 view .LVU21
 114 0000 10B5     		push	{r4, lr}
 115              	.LCFI2:
 116              		.cfi_def_cfa_offset 8
 117              		.cfi_offset 4, -8
 118              		.cfi_offset 14, -4
  68:Core/Src/main.c ****   HAL_UART_Transmit_IT(&huart2, Pitch, sizeof(Pitch));
 119              		.loc 1 68 3 is_stmt 1 view .LVU22
 120 0002 064C     		ldr	r4, .L7
 121 0004 1E22     		movs	r2, #30
 122 0006 0649     		ldr	r1, .L7+4
 123 0008 2046     		mov	r0, r4
 124              	.LVL1:
  68:Core/Src/main.c ****   HAL_UART_Transmit_IT(&huart2, Pitch, sizeof(Pitch));
 125              		.loc 1 68 3 is_stmt 0 view .LVU23
 126 000a FFF7FEFF 		bl	HAL_UART_Transmit_IT
 127              	.LVL2:
  69:Core/Src/main.c **** }
 128              		.loc 1 69 3 is_stmt 1 view .LVU24
 129 000e 1E22     		movs	r2, #30
 130 0010 0449     		ldr	r1, .L7+8
 131 0012 2046     		mov	r0, r4
 132 0014 FFF7FEFF 		bl	HAL_UART_Transmit_IT
 133              	.LVL3:
  70:Core/Src/main.c **** /* USER CODE END 0 */
 134              		.loc 1 70 1 is_stmt 0 view .LVU25
 135 0018 10BD     		pop	{r4, pc}
 136              	.L8:
 137 001a 00BF     		.align	2
 138              	.L7:
 139 001c 00000000 		.word	.LANCHOR1
 140 0020 00000000 		.word	.LANCHOR0
 141 0024 00000000 		.word	.LANCHOR2
 142              		.cfi_endproc
 143              	.LFE130:
ARM GAS  C:\Users\triet\AppData\Local\Temp\ccG8T9H5.s 			page 9


 145              		.section	.text.Error_Handler,"ax",%progbits
 146              		.align	1
 147              		.global	Error_Handler
 148              		.syntax unified
 149              		.thumb
 150              		.thumb_func
 152              	Error_Handler:
 153              	.LFB137:
 311:Core/Src/main.c **** 
 312:Core/Src/main.c **** /* USER CODE BEGIN 4 */
 313:Core/Src/main.c **** 
 314:Core/Src/main.c **** /* USER CODE END 4 */
 315:Core/Src/main.c **** 
 316:Core/Src/main.c **** /**
 317:Core/Src/main.c ****   * @brief  This function is executed in case of error occurrence.
 318:Core/Src/main.c ****   * @retval None
 319:Core/Src/main.c ****   */
 320:Core/Src/main.c **** void Error_Handler(void)
 321:Core/Src/main.c **** {
 154              		.loc 1 321 1 is_stmt 1 view -0
 155              		.cfi_startproc
 156              		@ Volatile: function does not return.
 157              		@ args = 0, pretend = 0, frame = 0
 158              		@ frame_needed = 0, uses_anonymous_args = 0
 159              		@ link register save eliminated.
 322:Core/Src/main.c ****   /* USER CODE BEGIN Error_Handler_Debug */
 323:Core/Src/main.c ****   /* User can add his own implementation to report the HAL error return state */
 324:Core/Src/main.c ****   __disable_irq();
 160              		.loc 1 324 3 view .LVU27
 161              	.LBB7:
 162              	.LBI7:
 163              		.file 2 "Drivers/CMSIS/Include/cmsis_gcc.h"
   1:Drivers/CMSIS/Include/cmsis_gcc.h **** /**************************************************************************//**
   2:Drivers/CMSIS/Include/cmsis_gcc.h ****  * @file     cmsis_gcc.h
   3:Drivers/CMSIS/Include/cmsis_gcc.h ****  * @brief    CMSIS compiler GCC header file
   4:Drivers/CMSIS/Include/cmsis_gcc.h ****  * @version  V5.0.4
   5:Drivers/CMSIS/Include/cmsis_gcc.h ****  * @date     09. April 2018
   6:Drivers/CMSIS/Include/cmsis_gcc.h ****  ******************************************************************************/
   7:Drivers/CMSIS/Include/cmsis_gcc.h **** /*
   8:Drivers/CMSIS/Include/cmsis_gcc.h ****  * Copyright (c) 2009-2018 Arm Limited. All rights reserved.
   9:Drivers/CMSIS/Include/cmsis_gcc.h ****  *
  10:Drivers/CMSIS/Include/cmsis_gcc.h ****  * SPDX-License-Identifier: Apache-2.0
  11:Drivers/CMSIS/Include/cmsis_gcc.h ****  *
  12:Drivers/CMSIS/Include/cmsis_gcc.h ****  * Licensed under the Apache License, Version 2.0 (the License); you may
  13:Drivers/CMSIS/Include/cmsis_gcc.h ****  * not use this file except in compliance with the License.
  14:Drivers/CMSIS/Include/cmsis_gcc.h ****  * You may obtain a copy of the License at
  15:Drivers/CMSIS/Include/cmsis_gcc.h ****  *
  16:Drivers/CMSIS/Include/cmsis_gcc.h ****  * www.apache.org/licenses/LICENSE-2.0
  17:Drivers/CMSIS/Include/cmsis_gcc.h ****  *
  18:Drivers/CMSIS/Include/cmsis_gcc.h ****  * Unless required by applicable law or agreed to in writing, software
  19:Drivers/CMSIS/Include/cmsis_gcc.h ****  * distributed under the License is distributed on an AS IS BASIS, WITHOUT
  20:Drivers/CMSIS/Include/cmsis_gcc.h ****  * WARRANTIES OR CONDITIONS OF ANY KIND, either express or implied.
  21:Drivers/CMSIS/Include/cmsis_gcc.h ****  * See the License for the specific language governing permissions and
  22:Drivers/CMSIS/Include/cmsis_gcc.h ****  * limitations under the License.
  23:Drivers/CMSIS/Include/cmsis_gcc.h ****  */
  24:Drivers/CMSIS/Include/cmsis_gcc.h **** 
  25:Drivers/CMSIS/Include/cmsis_gcc.h **** #ifndef __CMSIS_GCC_H
ARM GAS  C:\Users\triet\AppData\Local\Temp\ccG8T9H5.s 			page 10


  26:Drivers/CMSIS/Include/cmsis_gcc.h **** #define __CMSIS_GCC_H
  27:Drivers/CMSIS/Include/cmsis_gcc.h **** 
  28:Drivers/CMSIS/Include/cmsis_gcc.h **** /* ignore some GCC warnings */
  29:Drivers/CMSIS/Include/cmsis_gcc.h **** #pragma GCC diagnostic push
  30:Drivers/CMSIS/Include/cmsis_gcc.h **** #pragma GCC diagnostic ignored "-Wsign-conversion"
  31:Drivers/CMSIS/Include/cmsis_gcc.h **** #pragma GCC diagnostic ignored "-Wconversion"
  32:Drivers/CMSIS/Include/cmsis_gcc.h **** #pragma GCC diagnostic ignored "-Wunused-parameter"
  33:Drivers/CMSIS/Include/cmsis_gcc.h **** 
  34:Drivers/CMSIS/Include/cmsis_gcc.h **** /* Fallback for __has_builtin */
  35:Drivers/CMSIS/Include/cmsis_gcc.h **** #ifndef __has_builtin
  36:Drivers/CMSIS/Include/cmsis_gcc.h ****   #define __has_builtin(x) (0)
  37:Drivers/CMSIS/Include/cmsis_gcc.h **** #endif
  38:Drivers/CMSIS/Include/cmsis_gcc.h **** 
  39:Drivers/CMSIS/Include/cmsis_gcc.h **** /* CMSIS compiler specific defines */
  40:Drivers/CMSIS/Include/cmsis_gcc.h **** #ifndef   __ASM
  41:Drivers/CMSIS/Include/cmsis_gcc.h ****   #define __ASM                                  __asm
  42:Drivers/CMSIS/Include/cmsis_gcc.h **** #endif
  43:Drivers/CMSIS/Include/cmsis_gcc.h **** #ifndef   __INLINE
  44:Drivers/CMSIS/Include/cmsis_gcc.h ****   #define __INLINE                               inline
  45:Drivers/CMSIS/Include/cmsis_gcc.h **** #endif
  46:Drivers/CMSIS/Include/cmsis_gcc.h **** #ifndef   __STATIC_INLINE
  47:Drivers/CMSIS/Include/cmsis_gcc.h ****   #define __STATIC_INLINE                        static inline
  48:Drivers/CMSIS/Include/cmsis_gcc.h **** #endif
  49:Drivers/CMSIS/Include/cmsis_gcc.h **** #ifndef   __STATIC_FORCEINLINE                 
  50:Drivers/CMSIS/Include/cmsis_gcc.h ****   #define __STATIC_FORCEINLINE                   __attribute__((always_inline)) static inline
  51:Drivers/CMSIS/Include/cmsis_gcc.h **** #endif                                           
  52:Drivers/CMSIS/Include/cmsis_gcc.h **** #ifndef   __NO_RETURN
  53:Drivers/CMSIS/Include/cmsis_gcc.h ****   #define __NO_RETURN                            __attribute__((__noreturn__))
  54:Drivers/CMSIS/Include/cmsis_gcc.h **** #endif
  55:Drivers/CMSIS/Include/cmsis_gcc.h **** #ifndef   __USED
  56:Drivers/CMSIS/Include/cmsis_gcc.h ****   #define __USED                                 __attribute__((used))
  57:Drivers/CMSIS/Include/cmsis_gcc.h **** #endif
  58:Drivers/CMSIS/Include/cmsis_gcc.h **** #ifndef   __WEAK
  59:Drivers/CMSIS/Include/cmsis_gcc.h ****   #define __WEAK                                 __attribute__((weak))
  60:Drivers/CMSIS/Include/cmsis_gcc.h **** #endif
  61:Drivers/CMSIS/Include/cmsis_gcc.h **** #ifndef   __PACKED
  62:Drivers/CMSIS/Include/cmsis_gcc.h ****   #define __PACKED                               __attribute__((packed, aligned(1)))
  63:Drivers/CMSIS/Include/cmsis_gcc.h **** #endif
  64:Drivers/CMSIS/Include/cmsis_gcc.h **** #ifndef   __PACKED_STRUCT
  65:Drivers/CMSIS/Include/cmsis_gcc.h ****   #define __PACKED_STRUCT                        struct __attribute__((packed, aligned(1)))
  66:Drivers/CMSIS/Include/cmsis_gcc.h **** #endif
  67:Drivers/CMSIS/Include/cmsis_gcc.h **** #ifndef   __PACKED_UNION
  68:Drivers/CMSIS/Include/cmsis_gcc.h ****   #define __PACKED_UNION                         union __attribute__((packed, aligned(1)))
  69:Drivers/CMSIS/Include/cmsis_gcc.h **** #endif
  70:Drivers/CMSIS/Include/cmsis_gcc.h **** #ifndef   __UNALIGNED_UINT32        /* deprecated */
  71:Drivers/CMSIS/Include/cmsis_gcc.h ****   #pragma GCC diagnostic push
  72:Drivers/CMSIS/Include/cmsis_gcc.h ****   #pragma GCC diagnostic ignored "-Wpacked"
  73:Drivers/CMSIS/Include/cmsis_gcc.h ****   #pragma GCC diagnostic ignored "-Wattributes"
  74:Drivers/CMSIS/Include/cmsis_gcc.h ****   struct __attribute__((packed)) T_UINT32 { uint32_t v; };
  75:Drivers/CMSIS/Include/cmsis_gcc.h ****   #pragma GCC diagnostic pop
  76:Drivers/CMSIS/Include/cmsis_gcc.h ****   #define __UNALIGNED_UINT32(x)                  (((struct T_UINT32 *)(x))->v)
  77:Drivers/CMSIS/Include/cmsis_gcc.h **** #endif
  78:Drivers/CMSIS/Include/cmsis_gcc.h **** #ifndef   __UNALIGNED_UINT16_WRITE
  79:Drivers/CMSIS/Include/cmsis_gcc.h ****   #pragma GCC diagnostic push
  80:Drivers/CMSIS/Include/cmsis_gcc.h ****   #pragma GCC diagnostic ignored "-Wpacked"
  81:Drivers/CMSIS/Include/cmsis_gcc.h ****   #pragma GCC diagnostic ignored "-Wattributes"
  82:Drivers/CMSIS/Include/cmsis_gcc.h ****   __PACKED_STRUCT T_UINT16_WRITE { uint16_t v; };
ARM GAS  C:\Users\triet\AppData\Local\Temp\ccG8T9H5.s 			page 11


  83:Drivers/CMSIS/Include/cmsis_gcc.h ****   #pragma GCC diagnostic pop
  84:Drivers/CMSIS/Include/cmsis_gcc.h ****   #define __UNALIGNED_UINT16_WRITE(addr, val)    (void)((((struct T_UINT16_WRITE *)(void *)(addr))-
  85:Drivers/CMSIS/Include/cmsis_gcc.h **** #endif
  86:Drivers/CMSIS/Include/cmsis_gcc.h **** #ifndef   __UNALIGNED_UINT16_READ
  87:Drivers/CMSIS/Include/cmsis_gcc.h ****   #pragma GCC diagnostic push
  88:Drivers/CMSIS/Include/cmsis_gcc.h ****   #pragma GCC diagnostic ignored "-Wpacked"
  89:Drivers/CMSIS/Include/cmsis_gcc.h ****   #pragma GCC diagnostic ignored "-Wattributes"
  90:Drivers/CMSIS/Include/cmsis_gcc.h ****   __PACKED_STRUCT T_UINT16_READ { uint16_t v; };
  91:Drivers/CMSIS/Include/cmsis_gcc.h ****   #pragma GCC diagnostic pop
  92:Drivers/CMSIS/Include/cmsis_gcc.h ****   #define __UNALIGNED_UINT16_READ(addr)          (((const struct T_UINT16_READ *)(const void *)(add
  93:Drivers/CMSIS/Include/cmsis_gcc.h **** #endif
  94:Drivers/CMSIS/Include/cmsis_gcc.h **** #ifndef   __UNALIGNED_UINT32_WRITE
  95:Drivers/CMSIS/Include/cmsis_gcc.h ****   #pragma GCC diagnostic push
  96:Drivers/CMSIS/Include/cmsis_gcc.h ****   #pragma GCC diagnostic ignored "-Wpacked"
  97:Drivers/CMSIS/Include/cmsis_gcc.h ****   #pragma GCC diagnostic ignored "-Wattributes"
  98:Drivers/CMSIS/Include/cmsis_gcc.h ****   __PACKED_STRUCT T_UINT32_WRITE { uint32_t v; };
  99:Drivers/CMSIS/Include/cmsis_gcc.h ****   #pragma GCC diagnostic pop
 100:Drivers/CMSIS/Include/cmsis_gcc.h ****   #define __UNALIGNED_UINT32_WRITE(addr, val)    (void)((((struct T_UINT32_WRITE *)(void *)(addr))-
 101:Drivers/CMSIS/Include/cmsis_gcc.h **** #endif
 102:Drivers/CMSIS/Include/cmsis_gcc.h **** #ifndef   __UNALIGNED_UINT32_READ
 103:Drivers/CMSIS/Include/cmsis_gcc.h ****   #pragma GCC diagnostic push
 104:Drivers/CMSIS/Include/cmsis_gcc.h ****   #pragma GCC diagnostic ignored "-Wpacked"
 105:Drivers/CMSIS/Include/cmsis_gcc.h ****   #pragma GCC diagnostic ignored "-Wattributes"
 106:Drivers/CMSIS/Include/cmsis_gcc.h ****   __PACKED_STRUCT T_UINT32_READ { uint32_t v; };
 107:Drivers/CMSIS/Include/cmsis_gcc.h ****   #pragma GCC diagnostic pop
 108:Drivers/CMSIS/Include/cmsis_gcc.h ****   #define __UNALIGNED_UINT32_READ(addr)          (((const struct T_UINT32_READ *)(const void *)(add
 109:Drivers/CMSIS/Include/cmsis_gcc.h **** #endif
 110:Drivers/CMSIS/Include/cmsis_gcc.h **** #ifndef   __ALIGNED
 111:Drivers/CMSIS/Include/cmsis_gcc.h ****   #define __ALIGNED(x)                           __attribute__((aligned(x)))
 112:Drivers/CMSIS/Include/cmsis_gcc.h **** #endif
 113:Drivers/CMSIS/Include/cmsis_gcc.h **** #ifndef   __RESTRICT
 114:Drivers/CMSIS/Include/cmsis_gcc.h ****   #define __RESTRICT                             __restrict
 115:Drivers/CMSIS/Include/cmsis_gcc.h **** #endif
 116:Drivers/CMSIS/Include/cmsis_gcc.h **** 
 117:Drivers/CMSIS/Include/cmsis_gcc.h **** 
 118:Drivers/CMSIS/Include/cmsis_gcc.h **** /* ###########################  Core Function Access  ########################### */
 119:Drivers/CMSIS/Include/cmsis_gcc.h **** /** \ingroup  CMSIS_Core_FunctionInterface
 120:Drivers/CMSIS/Include/cmsis_gcc.h ****     \defgroup CMSIS_Core_RegAccFunctions CMSIS Core Register Access Functions
 121:Drivers/CMSIS/Include/cmsis_gcc.h ****   @{
 122:Drivers/CMSIS/Include/cmsis_gcc.h ****  */
 123:Drivers/CMSIS/Include/cmsis_gcc.h **** 
 124:Drivers/CMSIS/Include/cmsis_gcc.h **** /**
 125:Drivers/CMSIS/Include/cmsis_gcc.h ****   \brief   Enable IRQ Interrupts
 126:Drivers/CMSIS/Include/cmsis_gcc.h ****   \details Enables IRQ interrupts by clearing the I-bit in the CPSR.
 127:Drivers/CMSIS/Include/cmsis_gcc.h ****            Can only be executed in Privileged modes.
 128:Drivers/CMSIS/Include/cmsis_gcc.h ****  */
 129:Drivers/CMSIS/Include/cmsis_gcc.h **** __STATIC_FORCEINLINE void __enable_irq(void)
 130:Drivers/CMSIS/Include/cmsis_gcc.h **** {
 131:Drivers/CMSIS/Include/cmsis_gcc.h ****   __ASM volatile ("cpsie i" : : : "memory");
 132:Drivers/CMSIS/Include/cmsis_gcc.h **** }
 133:Drivers/CMSIS/Include/cmsis_gcc.h **** 
 134:Drivers/CMSIS/Include/cmsis_gcc.h **** 
 135:Drivers/CMSIS/Include/cmsis_gcc.h **** /**
 136:Drivers/CMSIS/Include/cmsis_gcc.h ****   \brief   Disable IRQ Interrupts
 137:Drivers/CMSIS/Include/cmsis_gcc.h ****   \details Disables IRQ interrupts by setting the I-bit in the CPSR.
 138:Drivers/CMSIS/Include/cmsis_gcc.h ****            Can only be executed in Privileged modes.
 139:Drivers/CMSIS/Include/cmsis_gcc.h ****  */
ARM GAS  C:\Users\triet\AppData\Local\Temp\ccG8T9H5.s 			page 12


 140:Drivers/CMSIS/Include/cmsis_gcc.h **** __STATIC_FORCEINLINE void __disable_irq(void)
 164              		.loc 2 140 27 view .LVU28
 165              	.LBB8:
 141:Drivers/CMSIS/Include/cmsis_gcc.h **** {
 142:Drivers/CMSIS/Include/cmsis_gcc.h ****   __ASM volatile ("cpsid i" : : : "memory");
 166              		.loc 2 142 3 view .LVU29
 167              		.syntax unified
 168              	@ 142 "Drivers/CMSIS/Include/cmsis_gcc.h" 1
 169 0000 72B6     		cpsid i
 170              	@ 0 "" 2
 171              		.thumb
 172              		.syntax unified
 173              	.L10:
 174              	.LBE8:
 175              	.LBE7:
 325:Core/Src/main.c ****   while (1)
 176              		.loc 1 325 3 discriminator 1 view .LVU30
 326:Core/Src/main.c ****   {
 327:Core/Src/main.c ****   }
 177              		.loc 1 327 3 discriminator 1 view .LVU31
 325:Core/Src/main.c ****   while (1)
 178              		.loc 1 325 9 discriminator 1 view .LVU32
 179 0002 FEE7     		b	.L10
 180              		.cfi_endproc
 181              	.LFE137:
 183              		.section	.text.MX_I2C1_Init,"ax",%progbits
 184              		.align	1
 185              		.syntax unified
 186              		.thumb
 187              		.thumb_func
 189              	MX_I2C1_Init:
 190              	.LFB133:
 199:Core/Src/main.c **** 
 191              		.loc 1 199 1 view -0
 192              		.cfi_startproc
 193              		@ args = 0, pretend = 0, frame = 0
 194              		@ frame_needed = 0, uses_anonymous_args = 0
 195 0000 08B5     		push	{r3, lr}
 196              	.LCFI3:
 197              		.cfi_def_cfa_offset 8
 198              		.cfi_offset 3, -8
 199              		.cfi_offset 14, -4
 208:Core/Src/main.c ****   hi2c1.Init.ClockSpeed = 100000;
 200              		.loc 1 208 3 view .LVU34
 208:Core/Src/main.c ****   hi2c1.Init.ClockSpeed = 100000;
 201              		.loc 1 208 18 is_stmt 0 view .LVU35
 202 0002 0A48     		ldr	r0, .L15
 203 0004 0A4B     		ldr	r3, .L15+4
 204 0006 0360     		str	r3, [r0]
 209:Core/Src/main.c ****   hi2c1.Init.DutyCycle = I2C_DUTYCYCLE_2;
 205              		.loc 1 209 3 is_stmt 1 view .LVU36
 209:Core/Src/main.c ****   hi2c1.Init.DutyCycle = I2C_DUTYCYCLE_2;
 206              		.loc 1 209 25 is_stmt 0 view .LVU37
 207 0008 0A4B     		ldr	r3, .L15+8
 208 000a 4360     		str	r3, [r0, #4]
 210:Core/Src/main.c ****   hi2c1.Init.OwnAddress1 = 0;
 209              		.loc 1 210 3 is_stmt 1 view .LVU38
ARM GAS  C:\Users\triet\AppData\Local\Temp\ccG8T9H5.s 			page 13


 210:Core/Src/main.c ****   hi2c1.Init.OwnAddress1 = 0;
 210              		.loc 1 210 24 is_stmt 0 view .LVU39
 211 000c 0023     		movs	r3, #0
 212 000e 8360     		str	r3, [r0, #8]
 211:Core/Src/main.c ****   hi2c1.Init.AddressingMode = I2C_ADDRESSINGMODE_7BIT;
 213              		.loc 1 211 3 is_stmt 1 view .LVU40
 211:Core/Src/main.c ****   hi2c1.Init.AddressingMode = I2C_ADDRESSINGMODE_7BIT;
 214              		.loc 1 211 26 is_stmt 0 view .LVU41
 215 0010 C360     		str	r3, [r0, #12]
 212:Core/Src/main.c ****   hi2c1.Init.DualAddressMode = I2C_DUALADDRESS_DISABLE;
 216              		.loc 1 212 3 is_stmt 1 view .LVU42
 212:Core/Src/main.c ****   hi2c1.Init.DualAddressMode = I2C_DUALADDRESS_DISABLE;
 217              		.loc 1 212 29 is_stmt 0 view .LVU43
 218 0012 4FF48042 		mov	r2, #16384
 219 0016 0261     		str	r2, [r0, #16]
 213:Core/Src/main.c ****   hi2c1.Init.OwnAddress2 = 0;
 220              		.loc 1 213 3 is_stmt 1 view .LVU44
 213:Core/Src/main.c ****   hi2c1.Init.OwnAddress2 = 0;
 221              		.loc 1 213 30 is_stmt 0 view .LVU45
 222 0018 4361     		str	r3, [r0, #20]
 214:Core/Src/main.c ****   hi2c1.Init.GeneralCallMode = I2C_GENERALCALL_DISABLE;
 223              		.loc 1 214 3 is_stmt 1 view .LVU46
 214:Core/Src/main.c ****   hi2c1.Init.GeneralCallMode = I2C_GENERALCALL_DISABLE;
 224              		.loc 1 214 26 is_stmt 0 view .LVU47
 225 001a 8361     		str	r3, [r0, #24]
 215:Core/Src/main.c ****   hi2c1.Init.NoStretchMode = I2C_NOSTRETCH_DISABLE;
 226              		.loc 1 215 3 is_stmt 1 view .LVU48
 215:Core/Src/main.c ****   hi2c1.Init.NoStretchMode = I2C_NOSTRETCH_DISABLE;
 227              		.loc 1 215 30 is_stmt 0 view .LVU49
 228 001c C361     		str	r3, [r0, #28]
 216:Core/Src/main.c ****   if (HAL_I2C_Init(&hi2c1) != HAL_OK)
 229              		.loc 1 216 3 is_stmt 1 view .LVU50
 216:Core/Src/main.c ****   if (HAL_I2C_Init(&hi2c1) != HAL_OK)
 230              		.loc 1 216 28 is_stmt 0 view .LVU51
 231 001e 0362     		str	r3, [r0, #32]
 217:Core/Src/main.c ****   {
 232              		.loc 1 217 3 is_stmt 1 view .LVU52
 217:Core/Src/main.c ****   {
 233              		.loc 1 217 7 is_stmt 0 view .LVU53
 234 0020 FFF7FEFF 		bl	HAL_I2C_Init
 235              	.LVL4:
 217:Core/Src/main.c ****   {
 236              		.loc 1 217 6 view .LVU54
 237 0024 00B9     		cbnz	r0, .L14
 225:Core/Src/main.c **** 
 238              		.loc 1 225 1 view .LVU55
 239 0026 08BD     		pop	{r3, pc}
 240              	.L14:
 219:Core/Src/main.c ****   }
 241              		.loc 1 219 5 is_stmt 1 view .LVU56
 242 0028 FFF7FEFF 		bl	Error_Handler
 243              	.LVL5:
 244              	.L16:
 245              		.align	2
 246              	.L15:
 247 002c 00000000 		.word	.LANCHOR3
 248 0030 00540040 		.word	1073763328
ARM GAS  C:\Users\triet\AppData\Local\Temp\ccG8T9H5.s 			page 14


 249 0034 A0860100 		.word	100000
 250              		.cfi_endproc
 251              	.LFE133:
 253              		.section	.text.MX_USART1_UART_Init,"ax",%progbits
 254              		.align	1
 255              		.syntax unified
 256              		.thumb
 257              		.thumb_func
 259              	MX_USART1_UART_Init:
 260              	.LFB134:
 233:Core/Src/main.c **** 
 261              		.loc 1 233 1 view -0
 262              		.cfi_startproc
 263              		@ args = 0, pretend = 0, frame = 0
 264              		@ frame_needed = 0, uses_anonymous_args = 0
 265 0000 08B5     		push	{r3, lr}
 266              	.LCFI4:
 267              		.cfi_def_cfa_offset 8
 268              		.cfi_offset 3, -8
 269              		.cfi_offset 14, -4
 242:Core/Src/main.c ****   huart1.Init.BaudRate = 115200;
 270              		.loc 1 242 3 view .LVU58
 242:Core/Src/main.c ****   huart1.Init.BaudRate = 115200;
 271              		.loc 1 242 19 is_stmt 0 view .LVU59
 272 0002 0A48     		ldr	r0, .L21
 273 0004 0A4B     		ldr	r3, .L21+4
 274 0006 0360     		str	r3, [r0]
 243:Core/Src/main.c ****   huart1.Init.WordLength = UART_WORDLENGTH_8B;
 275              		.loc 1 243 3 is_stmt 1 view .LVU60
 243:Core/Src/main.c ****   huart1.Init.WordLength = UART_WORDLENGTH_8B;
 276              		.loc 1 243 24 is_stmt 0 view .LVU61
 277 0008 4FF4E133 		mov	r3, #115200
 278 000c 4360     		str	r3, [r0, #4]
 244:Core/Src/main.c ****   huart1.Init.StopBits = UART_STOPBITS_1;
 279              		.loc 1 244 3 is_stmt 1 view .LVU62
 244:Core/Src/main.c ****   huart1.Init.StopBits = UART_STOPBITS_1;
 280              		.loc 1 244 26 is_stmt 0 view .LVU63
 281 000e 0023     		movs	r3, #0
 282 0010 8360     		str	r3, [r0, #8]
 245:Core/Src/main.c ****   huart1.Init.Parity = UART_PARITY_NONE;
 283              		.loc 1 245 3 is_stmt 1 view .LVU64
 245:Core/Src/main.c ****   huart1.Init.Parity = UART_PARITY_NONE;
 284              		.loc 1 245 24 is_stmt 0 view .LVU65
 285 0012 C360     		str	r3, [r0, #12]
 246:Core/Src/main.c ****   huart1.Init.Mode = UART_MODE_TX_RX;
 286              		.loc 1 246 3 is_stmt 1 view .LVU66
 246:Core/Src/main.c ****   huart1.Init.Mode = UART_MODE_TX_RX;
 287              		.loc 1 246 22 is_stmt 0 view .LVU67
 288 0014 0361     		str	r3, [r0, #16]
 247:Core/Src/main.c ****   huart1.Init.HwFlowCtl = UART_HWCONTROL_NONE;
 289              		.loc 1 247 3 is_stmt 1 view .LVU68
 247:Core/Src/main.c ****   huart1.Init.HwFlowCtl = UART_HWCONTROL_NONE;
 290              		.loc 1 247 20 is_stmt 0 view .LVU69
 291 0016 0C22     		movs	r2, #12
 292 0018 4261     		str	r2, [r0, #20]
 248:Core/Src/main.c ****   huart1.Init.OverSampling = UART_OVERSAMPLING_16;
 293              		.loc 1 248 3 is_stmt 1 view .LVU70
ARM GAS  C:\Users\triet\AppData\Local\Temp\ccG8T9H5.s 			page 15


 248:Core/Src/main.c ****   huart1.Init.OverSampling = UART_OVERSAMPLING_16;
 294              		.loc 1 248 25 is_stmt 0 view .LVU71
 295 001a 8361     		str	r3, [r0, #24]
 249:Core/Src/main.c ****   if (HAL_UART_Init(&huart1) != HAL_OK)
 296              		.loc 1 249 3 is_stmt 1 view .LVU72
 249:Core/Src/main.c ****   if (HAL_UART_Init(&huart1) != HAL_OK)
 297              		.loc 1 249 28 is_stmt 0 view .LVU73
 298 001c C361     		str	r3, [r0, #28]
 250:Core/Src/main.c ****   {
 299              		.loc 1 250 3 is_stmt 1 view .LVU74
 250:Core/Src/main.c ****   {
 300              		.loc 1 250 7 is_stmt 0 view .LVU75
 301 001e FFF7FEFF 		bl	HAL_UART_Init
 302              	.LVL6:
 250:Core/Src/main.c ****   {
 303              		.loc 1 250 6 view .LVU76
 304 0022 00B9     		cbnz	r0, .L20
 258:Core/Src/main.c **** 
 305              		.loc 1 258 1 view .LVU77
 306 0024 08BD     		pop	{r3, pc}
 307              	.L20:
 252:Core/Src/main.c ****   }
 308              		.loc 1 252 5 is_stmt 1 view .LVU78
 309 0026 FFF7FEFF 		bl	Error_Handler
 310              	.LVL7:
 311              	.L22:
 312 002a 00BF     		.align	2
 313              	.L21:
 314 002c 00000000 		.word	.LANCHOR4
 315 0030 00100140 		.word	1073811456
 316              		.cfi_endproc
 317              	.LFE134:
 319              		.section	.text.MX_USART2_UART_Init,"ax",%progbits
 320              		.align	1
 321              		.syntax unified
 322              		.thumb
 323              		.thumb_func
 325              	MX_USART2_UART_Init:
 326              	.LFB135:
 266:Core/Src/main.c **** 
 327              		.loc 1 266 1 view -0
 328              		.cfi_startproc
 329              		@ args = 0, pretend = 0, frame = 0
 330              		@ frame_needed = 0, uses_anonymous_args = 0
 331 0000 08B5     		push	{r3, lr}
 332              	.LCFI5:
 333              		.cfi_def_cfa_offset 8
 334              		.cfi_offset 3, -8
 335              		.cfi_offset 14, -4
 275:Core/Src/main.c ****   huart2.Init.BaudRate = 115200;
 336              		.loc 1 275 3 view .LVU80
 275:Core/Src/main.c ****   huart2.Init.BaudRate = 115200;
 337              		.loc 1 275 19 is_stmt 0 view .LVU81
 338 0002 0A48     		ldr	r0, .L27
 339 0004 0A4B     		ldr	r3, .L27+4
 340 0006 0360     		str	r3, [r0]
 276:Core/Src/main.c ****   huart2.Init.WordLength = UART_WORDLENGTH_8B;
ARM GAS  C:\Users\triet\AppData\Local\Temp\ccG8T9H5.s 			page 16


 341              		.loc 1 276 3 is_stmt 1 view .LVU82
 276:Core/Src/main.c ****   huart2.Init.WordLength = UART_WORDLENGTH_8B;
 342              		.loc 1 276 24 is_stmt 0 view .LVU83
 343 0008 4FF4E133 		mov	r3, #115200
 344 000c 4360     		str	r3, [r0, #4]
 277:Core/Src/main.c ****   huart2.Init.StopBits = UART_STOPBITS_1;
 345              		.loc 1 277 3 is_stmt 1 view .LVU84
 277:Core/Src/main.c ****   huart2.Init.StopBits = UART_STOPBITS_1;
 346              		.loc 1 277 26 is_stmt 0 view .LVU85
 347 000e 0023     		movs	r3, #0
 348 0010 8360     		str	r3, [r0, #8]
 278:Core/Src/main.c ****   huart2.Init.Parity = UART_PARITY_NONE;
 349              		.loc 1 278 3 is_stmt 1 view .LVU86
 278:Core/Src/main.c ****   huart2.Init.Parity = UART_PARITY_NONE;
 350              		.loc 1 278 24 is_stmt 0 view .LVU87
 351 0012 C360     		str	r3, [r0, #12]
 279:Core/Src/main.c ****   huart2.Init.Mode = UART_MODE_TX_RX;
 352              		.loc 1 279 3 is_stmt 1 view .LVU88
 279:Core/Src/main.c ****   huart2.Init.Mode = UART_MODE_TX_RX;
 353              		.loc 1 279 22 is_stmt 0 view .LVU89
 354 0014 0361     		str	r3, [r0, #16]
 280:Core/Src/main.c ****   huart2.Init.HwFlowCtl = UART_HWCONTROL_NONE;
 355              		.loc 1 280 3 is_stmt 1 view .LVU90
 280:Core/Src/main.c ****   huart2.Init.HwFlowCtl = UART_HWCONTROL_NONE;
 356              		.loc 1 280 20 is_stmt 0 view .LVU91
 357 0016 0C22     		movs	r2, #12
 358 0018 4261     		str	r2, [r0, #20]
 281:Core/Src/main.c ****   huart2.Init.OverSampling = UART_OVERSAMPLING_16;
 359              		.loc 1 281 3 is_stmt 1 view .LVU92
 281:Core/Src/main.c ****   huart2.Init.OverSampling = UART_OVERSAMPLING_16;
 360              		.loc 1 281 25 is_stmt 0 view .LVU93
 361 001a 8361     		str	r3, [r0, #24]
 282:Core/Src/main.c ****   if (HAL_UART_Init(&huart2) != HAL_OK)
 362              		.loc 1 282 3 is_stmt 1 view .LVU94
 282:Core/Src/main.c ****   if (HAL_UART_Init(&huart2) != HAL_OK)
 363              		.loc 1 282 28 is_stmt 0 view .LVU95
 364 001c C361     		str	r3, [r0, #28]
 283:Core/Src/main.c ****   {
 365              		.loc 1 283 3 is_stmt 1 view .LVU96
 283:Core/Src/main.c ****   {
 366              		.loc 1 283 7 is_stmt 0 view .LVU97
 367 001e FFF7FEFF 		bl	HAL_UART_Init
 368              	.LVL8:
 283:Core/Src/main.c ****   {
 369              		.loc 1 283 6 view .LVU98
 370 0022 00B9     		cbnz	r0, .L26
 291:Core/Src/main.c **** 
 371              		.loc 1 291 1 view .LVU99
 372 0024 08BD     		pop	{r3, pc}
 373              	.L26:
 285:Core/Src/main.c ****   }
 374              		.loc 1 285 5 is_stmt 1 view .LVU100
 375 0026 FFF7FEFF 		bl	Error_Handler
 376              	.LVL9:
 377              	.L28:
 378 002a 00BF     		.align	2
 379              	.L27:
ARM GAS  C:\Users\triet\AppData\Local\Temp\ccG8T9H5.s 			page 17


 380 002c 00000000 		.word	.LANCHOR1
 381 0030 00440040 		.word	1073759232
 382              		.cfi_endproc
 383              	.LFE135:
 385              		.section	.text.SystemClock_Config,"ax",%progbits
 386              		.align	1
 387              		.global	SystemClock_Config
 388              		.syntax unified
 389              		.thumb
 390              		.thumb_func
 392              	SystemClock_Config:
 393              	.LFB132:
 145:Core/Src/main.c ****   RCC_OscInitTypeDef RCC_OscInitStruct = {0};
 394              		.loc 1 145 1 view -0
 395              		.cfi_startproc
 396              		@ args = 0, pretend = 0, frame = 80
 397              		@ frame_needed = 0, uses_anonymous_args = 0
 398 0000 00B5     		push	{lr}
 399              	.LCFI6:
 400              		.cfi_def_cfa_offset 4
 401              		.cfi_offset 14, -4
 402 0002 95B0     		sub	sp, sp, #84
 403              	.LCFI7:
 404              		.cfi_def_cfa_offset 88
 146:Core/Src/main.c ****   RCC_ClkInitTypeDef RCC_ClkInitStruct = {0};
 405              		.loc 1 146 3 view .LVU102
 146:Core/Src/main.c ****   RCC_ClkInitTypeDef RCC_ClkInitStruct = {0};
 406              		.loc 1 146 22 is_stmt 0 view .LVU103
 407 0004 3422     		movs	r2, #52
 408 0006 0021     		movs	r1, #0
 409 0008 07A8     		add	r0, sp, #28
 410 000a FFF7FEFF 		bl	memset
 411              	.LVL10:
 147:Core/Src/main.c **** 
 412              		.loc 1 147 3 is_stmt 1 view .LVU104
 147:Core/Src/main.c **** 
 413              		.loc 1 147 22 is_stmt 0 view .LVU105
 414 000e 0023     		movs	r3, #0
 415 0010 0293     		str	r3, [sp, #8]
 416 0012 0393     		str	r3, [sp, #12]
 417 0014 0493     		str	r3, [sp, #16]
 418 0016 0593     		str	r3, [sp, #20]
 419 0018 0693     		str	r3, [sp, #24]
 151:Core/Src/main.c ****   __HAL_PWR_VOLTAGESCALING_CONFIG(PWR_REGULATOR_VOLTAGE_SCALE1);
 420              		.loc 1 151 3 is_stmt 1 view .LVU106
 421              	.LBB9:
 151:Core/Src/main.c ****   __HAL_PWR_VOLTAGESCALING_CONFIG(PWR_REGULATOR_VOLTAGE_SCALE1);
 422              		.loc 1 151 3 view .LVU107
 423 001a 0093     		str	r3, [sp]
 151:Core/Src/main.c ****   __HAL_PWR_VOLTAGESCALING_CONFIG(PWR_REGULATOR_VOLTAGE_SCALE1);
 424              		.loc 1 151 3 view .LVU108
 425 001c 234A     		ldr	r2, .L37
 426 001e 116C     		ldr	r1, [r2, #64]
 427 0020 41F08051 		orr	r1, r1, #268435456
 428 0024 1164     		str	r1, [r2, #64]
 151:Core/Src/main.c ****   __HAL_PWR_VOLTAGESCALING_CONFIG(PWR_REGULATOR_VOLTAGE_SCALE1);
 429              		.loc 1 151 3 view .LVU109
ARM GAS  C:\Users\triet\AppData\Local\Temp\ccG8T9H5.s 			page 18


 430 0026 126C     		ldr	r2, [r2, #64]
 431 0028 02F08052 		and	r2, r2, #268435456
 432 002c 0092     		str	r2, [sp]
 151:Core/Src/main.c ****   __HAL_PWR_VOLTAGESCALING_CONFIG(PWR_REGULATOR_VOLTAGE_SCALE1);
 433              		.loc 1 151 3 view .LVU110
 434 002e 009A     		ldr	r2, [sp]
 435              	.LBE9:
 151:Core/Src/main.c ****   __HAL_PWR_VOLTAGESCALING_CONFIG(PWR_REGULATOR_VOLTAGE_SCALE1);
 436              		.loc 1 151 3 view .LVU111
 152:Core/Src/main.c **** 
 437              		.loc 1 152 3 view .LVU112
 438              	.LBB10:
 152:Core/Src/main.c **** 
 439              		.loc 1 152 3 view .LVU113
 440 0030 0193     		str	r3, [sp, #4]
 152:Core/Src/main.c **** 
 441              		.loc 1 152 3 view .LVU114
 442 0032 1F4B     		ldr	r3, .L37+4
 443 0034 1A68     		ldr	r2, [r3]
 444 0036 42F44042 		orr	r2, r2, #49152
 445 003a 1A60     		str	r2, [r3]
 152:Core/Src/main.c **** 
 446              		.loc 1 152 3 view .LVU115
 447 003c 1B68     		ldr	r3, [r3]
 448 003e 03F44043 		and	r3, r3, #49152
 449 0042 0193     		str	r3, [sp, #4]
 152:Core/Src/main.c **** 
 450              		.loc 1 152 3 view .LVU116
 451 0044 019B     		ldr	r3, [sp, #4]
 452              	.LBE10:
 152:Core/Src/main.c **** 
 453              		.loc 1 152 3 view .LVU117
 157:Core/Src/main.c ****   RCC_OscInitStruct.HSEState = RCC_HSE_ON;
 454              		.loc 1 157 3 view .LVU118
 157:Core/Src/main.c ****   RCC_OscInitStruct.HSEState = RCC_HSE_ON;
 455              		.loc 1 157 36 is_stmt 0 view .LVU119
 456 0046 0123     		movs	r3, #1
 457 0048 0793     		str	r3, [sp, #28]
 158:Core/Src/main.c ****   RCC_OscInitStruct.PLL.PLLState = RCC_PLL_ON;
 458              		.loc 1 158 3 is_stmt 1 view .LVU120
 158:Core/Src/main.c ****   RCC_OscInitStruct.PLL.PLLState = RCC_PLL_ON;
 459              		.loc 1 158 30 is_stmt 0 view .LVU121
 460 004a 4FF48033 		mov	r3, #65536
 461 004e 0893     		str	r3, [sp, #32]
 159:Core/Src/main.c ****   RCC_OscInitStruct.PLL.PLLSource = RCC_PLLSOURCE_HSE;
 462              		.loc 1 159 3 is_stmt 1 view .LVU122
 159:Core/Src/main.c ****   RCC_OscInitStruct.PLL.PLLSource = RCC_PLLSOURCE_HSE;
 463              		.loc 1 159 34 is_stmt 0 view .LVU123
 464 0050 0223     		movs	r3, #2
 465 0052 0D93     		str	r3, [sp, #52]
 160:Core/Src/main.c ****   RCC_OscInitStruct.PLL.PLLM = 4;
 466              		.loc 1 160 3 is_stmt 1 view .LVU124
 160:Core/Src/main.c ****   RCC_OscInitStruct.PLL.PLLM = 4;
 467              		.loc 1 160 35 is_stmt 0 view .LVU125
 468 0054 4FF48002 		mov	r2, #4194304
 469 0058 0E92     		str	r2, [sp, #56]
 161:Core/Src/main.c ****   RCC_OscInitStruct.PLL.PLLN = 180;
ARM GAS  C:\Users\triet\AppData\Local\Temp\ccG8T9H5.s 			page 19


 470              		.loc 1 161 3 is_stmt 1 view .LVU126
 161:Core/Src/main.c ****   RCC_OscInitStruct.PLL.PLLN = 180;
 471              		.loc 1 161 30 is_stmt 0 view .LVU127
 472 005a 0422     		movs	r2, #4
 473 005c 0F92     		str	r2, [sp, #60]
 162:Core/Src/main.c ****   RCC_OscInitStruct.PLL.PLLP = RCC_PLLP_DIV2;
 474              		.loc 1 162 3 is_stmt 1 view .LVU128
 162:Core/Src/main.c ****   RCC_OscInitStruct.PLL.PLLP = RCC_PLLP_DIV2;
 475              		.loc 1 162 30 is_stmt 0 view .LVU129
 476 005e B422     		movs	r2, #180
 477 0060 1092     		str	r2, [sp, #64]
 163:Core/Src/main.c ****   RCC_OscInitStruct.PLL.PLLQ = 2;
 478              		.loc 1 163 3 is_stmt 1 view .LVU130
 163:Core/Src/main.c ****   RCC_OscInitStruct.PLL.PLLQ = 2;
 479              		.loc 1 163 30 is_stmt 0 view .LVU131
 480 0062 1193     		str	r3, [sp, #68]
 164:Core/Src/main.c ****   RCC_OscInitStruct.PLL.PLLR = 2;
 481              		.loc 1 164 3 is_stmt 1 view .LVU132
 164:Core/Src/main.c ****   RCC_OscInitStruct.PLL.PLLR = 2;
 482              		.loc 1 164 30 is_stmt 0 view .LVU133
 483 0064 1293     		str	r3, [sp, #72]
 165:Core/Src/main.c ****   if (HAL_RCC_OscConfig(&RCC_OscInitStruct) != HAL_OK)
 484              		.loc 1 165 3 is_stmt 1 view .LVU134
 165:Core/Src/main.c ****   if (HAL_RCC_OscConfig(&RCC_OscInitStruct) != HAL_OK)
 485              		.loc 1 165 30 is_stmt 0 view .LVU135
 486 0066 1393     		str	r3, [sp, #76]
 166:Core/Src/main.c ****   {
 487              		.loc 1 166 3 is_stmt 1 view .LVU136
 166:Core/Src/main.c ****   {
 488              		.loc 1 166 7 is_stmt 0 view .LVU137
 489 0068 07A8     		add	r0, sp, #28
 490 006a FFF7FEFF 		bl	HAL_RCC_OscConfig
 491              	.LVL11:
 166:Core/Src/main.c ****   {
 492              		.loc 1 166 6 view .LVU138
 493 006e B0B9     		cbnz	r0, .L34
 173:Core/Src/main.c ****   {
 494              		.loc 1 173 3 is_stmt 1 view .LVU139
 173:Core/Src/main.c ****   {
 495              		.loc 1 173 7 is_stmt 0 view .LVU140
 496 0070 FFF7FEFF 		bl	HAL_PWREx_EnableOverDrive
 497              	.LVL12:
 173:Core/Src/main.c ****   {
 498              		.loc 1 173 6 view .LVU141
 499 0074 A8B9     		cbnz	r0, .L35
 180:Core/Src/main.c ****                               |RCC_CLOCKTYPE_PCLK1|RCC_CLOCKTYPE_PCLK2;
 500              		.loc 1 180 3 is_stmt 1 view .LVU142
 180:Core/Src/main.c ****                               |RCC_CLOCKTYPE_PCLK1|RCC_CLOCKTYPE_PCLK2;
 501              		.loc 1 180 31 is_stmt 0 view .LVU143
 502 0076 0F23     		movs	r3, #15
 503 0078 0293     		str	r3, [sp, #8]
 182:Core/Src/main.c ****   RCC_ClkInitStruct.AHBCLKDivider = RCC_SYSCLK_DIV1;
 504              		.loc 1 182 3 is_stmt 1 view .LVU144
 182:Core/Src/main.c ****   RCC_ClkInitStruct.AHBCLKDivider = RCC_SYSCLK_DIV1;
 505              		.loc 1 182 34 is_stmt 0 view .LVU145
 506 007a 0223     		movs	r3, #2
 507 007c 0393     		str	r3, [sp, #12]
ARM GAS  C:\Users\triet\AppData\Local\Temp\ccG8T9H5.s 			page 20


 183:Core/Src/main.c ****   RCC_ClkInitStruct.APB1CLKDivider = RCC_HCLK_DIV4;
 508              		.loc 1 183 3 is_stmt 1 view .LVU146
 183:Core/Src/main.c ****   RCC_ClkInitStruct.APB1CLKDivider = RCC_HCLK_DIV4;
 509              		.loc 1 183 35 is_stmt 0 view .LVU147
 510 007e 0023     		movs	r3, #0
 511 0080 0493     		str	r3, [sp, #16]
 184:Core/Src/main.c ****   RCC_ClkInitStruct.APB2CLKDivider = RCC_HCLK_DIV2;
 512              		.loc 1 184 3 is_stmt 1 view .LVU148
 184:Core/Src/main.c ****   RCC_ClkInitStruct.APB2CLKDivider = RCC_HCLK_DIV2;
 513              		.loc 1 184 36 is_stmt 0 view .LVU149
 514 0082 4FF4A053 		mov	r3, #5120
 515 0086 0593     		str	r3, [sp, #20]
 185:Core/Src/main.c **** 
 516              		.loc 1 185 3 is_stmt 1 view .LVU150
 185:Core/Src/main.c **** 
 517              		.loc 1 185 36 is_stmt 0 view .LVU151
 518 0088 4FF48053 		mov	r3, #4096
 519 008c 0693     		str	r3, [sp, #24]
 187:Core/Src/main.c ****   {
 520              		.loc 1 187 3 is_stmt 1 view .LVU152
 187:Core/Src/main.c ****   {
 521              		.loc 1 187 7 is_stmt 0 view .LVU153
 522 008e 0521     		movs	r1, #5
 523 0090 02A8     		add	r0, sp, #8
 524 0092 FFF7FEFF 		bl	HAL_RCC_ClockConfig
 525              	.LVL13:
 187:Core/Src/main.c ****   {
 526              		.loc 1 187 6 view .LVU154
 527 0096 30B9     		cbnz	r0, .L36
 191:Core/Src/main.c **** 
 528              		.loc 1 191 1 view .LVU155
 529 0098 15B0     		add	sp, sp, #84
 530              	.LCFI8:
 531              		.cfi_remember_state
 532              		.cfi_def_cfa_offset 4
 533              		@ sp needed
 534 009a 5DF804FB 		ldr	pc, [sp], #4
 535              	.L34:
 536              	.LCFI9:
 537              		.cfi_restore_state
 168:Core/Src/main.c ****   }
 538              		.loc 1 168 5 is_stmt 1 view .LVU156
 539 009e FFF7FEFF 		bl	Error_Handler
 540              	.LVL14:
 541              	.L35:
 175:Core/Src/main.c ****   }
 542              		.loc 1 175 5 view .LVU157
 543 00a2 FFF7FEFF 		bl	Error_Handler
 544              	.LVL15:
 545              	.L36:
 189:Core/Src/main.c ****   }
 546              		.loc 1 189 5 view .LVU158
 547 00a6 FFF7FEFF 		bl	Error_Handler
 548              	.LVL16:
 549              	.L38:
 550 00aa 00BF     		.align	2
 551              	.L37:
ARM GAS  C:\Users\triet\AppData\Local\Temp\ccG8T9H5.s 			page 21


 552 00ac 00380240 		.word	1073887232
 553 00b0 00700040 		.word	1073770496
 554              		.cfi_endproc
 555              	.LFE132:
 557              		.global	__aeabi_f2d
 558              		.section	.rodata.main.str1.4,"aMS",%progbits,1
 559              		.align	2
 560              	.LC0:
 561 0000 526F6C6C 		.ascii	"Roll: %.2f \000"
 561      3A20252E 
 561      32662000 
 562              		.align	2
 563              	.LC1:
 564 000c 50697463 		.ascii	"Pitch: %.2f \000"
 564      683A2025 
 564      2E326620 
 564      00
 565              		.section	.text.main,"ax",%progbits
 566              		.align	1
 567              		.global	main
 568              		.syntax unified
 569              		.thumb
 570              		.thumb_func
 572              	main:
 573              	.LFB131:
  78:Core/Src/main.c ****   /* USER CODE BEGIN 1 */
 574              		.loc 1 78 1 view -0
 575              		.cfi_startproc
 576              		@ args = 0, pretend = 0, frame = 0
 577              		@ frame_needed = 0, uses_anonymous_args = 0
 578 0000 70B5     		push	{r4, r5, r6, lr}
 579              	.LCFI10:
 580              		.cfi_def_cfa_offset 16
 581              		.cfi_offset 4, -16
 582              		.cfi_offset 5, -12
 583              		.cfi_offset 6, -8
 584              		.cfi_offset 14, -4
  86:Core/Src/main.c **** 
 585              		.loc 1 86 3 view .LVU160
 586 0002 FFF7FEFF 		bl	HAL_Init
 587              	.LVL17:
  93:Core/Src/main.c **** 
 588              		.loc 1 93 3 view .LVU161
 589 0006 FFF7FEFF 		bl	SystemClock_Config
 590              	.LVL18:
 100:Core/Src/main.c ****   MX_I2C1_Init();
 591              		.loc 1 100 3 view .LVU162
 592 000a FFF7FEFF 		bl	MX_GPIO_Init
 593              	.LVL19:
 101:Core/Src/main.c ****   MX_USART1_UART_Init();
 594              		.loc 1 101 3 view .LVU163
 595 000e FFF7FEFF 		bl	MX_I2C1_Init
 596              	.LVL20:
 102:Core/Src/main.c ****   MX_USART2_UART_Init();
 597              		.loc 1 102 3 view .LVU164
 598 0012 FFF7FEFF 		bl	MX_USART1_UART_Init
 599              	.LVL21:
ARM GAS  C:\Users\triet\AppData\Local\Temp\ccG8T9H5.s 			page 22


 103:Core/Src/main.c ****   /* USER CODE BEGIN 2 */
 600              		.loc 1 103 3 view .LVU165
 601 0016 FFF7FEFF 		bl	MX_USART2_UART_Init
 602              	.LVL22:
 105:Core/Src/main.c ****   for(int callib = 0; callib < 2000 ; callib++)
 603              		.loc 1 105 3 view .LVU166
 604 001a FFF7FEFF 		bl	MPU6050_Init
 605              	.LVL23:
 106:Core/Src/main.c ****   {
 606              		.loc 1 106 3 view .LVU167
 607              	.LBB11:
 106:Core/Src/main.c ****   {
 608              		.loc 1 106 7 view .LVU168
 106:Core/Src/main.c ****   {
 609              		.loc 1 106 11 is_stmt 0 view .LVU169
 610 001e 0025     		movs	r5, #0
 106:Core/Src/main.c ****   {
 611              		.loc 1 106 3 view .LVU170
 612 0020 1CE0     		b	.L40
 613              	.LVL24:
 614              	.L41:
 108:Core/Src/main.c ****     IMU.Gx_Callib += IMU.Gx;
 615              		.loc 1 108 5 is_stmt 1 discriminator 3 view .LVU171
 616 0022 384C     		ldr	r4, .L44
 617 0024 2046     		mov	r0, r4
 618 0026 FFF7FEFF 		bl	MPU6050_Read
 619              	.LVL25:
 109:Core/Src/main.c ****     IMU.Gy_Callib += IMU.Gy;
 620              		.loc 1 109 5 discriminator 3 view .LVU172
 109:Core/Src/main.c ****     IMU.Gy_Callib += IMU.Gy;
 621              		.loc 1 109 25 is_stmt 0 discriminator 3 view .LVU173
 622 002a 94ED007A 		vldr.32	s14, [r4]
 109:Core/Src/main.c ****     IMU.Gy_Callib += IMU.Gy;
 623              		.loc 1 109 19 discriminator 3 view .LVU174
 624 002e D4ED037A 		vldr.32	s15, [r4, #12]
 625 0032 77EE877A 		vadd.f32	s15, s15, s14
 626 0036 C4ED037A 		vstr.32	s15, [r4, #12]
 110:Core/Src/main.c ****     IMU.Gz_Callib += IMU.Gz;
 627              		.loc 1 110 5 is_stmt 1 discriminator 3 view .LVU175
 110:Core/Src/main.c ****     IMU.Gz_Callib += IMU.Gz;
 628              		.loc 1 110 25 is_stmt 0 discriminator 3 view .LVU176
 629 003a 94ED017A 		vldr.32	s14, [r4, #4]
 110:Core/Src/main.c ****     IMU.Gz_Callib += IMU.Gz;
 630              		.loc 1 110 19 discriminator 3 view .LVU177
 631 003e D4ED047A 		vldr.32	s15, [r4, #16]
 632 0042 77EE877A 		vadd.f32	s15, s15, s14
 633 0046 C4ED047A 		vstr.32	s15, [r4, #16]
 111:Core/Src/main.c ****   }
 634              		.loc 1 111 5 is_stmt 1 discriminator 3 view .LVU178
 111:Core/Src/main.c ****   }
 635              		.loc 1 111 25 is_stmt 0 discriminator 3 view .LVU179
 636 004a 94ED027A 		vldr.32	s14, [r4, #8]
 111:Core/Src/main.c ****   }
 637              		.loc 1 111 19 discriminator 3 view .LVU180
 638 004e D4ED057A 		vldr.32	s15, [r4, #20]
 639 0052 77EE877A 		vadd.f32	s15, s15, s14
 640 0056 C4ED057A 		vstr.32	s15, [r4, #20]
ARM GAS  C:\Users\triet\AppData\Local\Temp\ccG8T9H5.s 			page 23


 106:Core/Src/main.c ****   {
 641              		.loc 1 106 39 is_stmt 1 discriminator 3 view .LVU181
 106:Core/Src/main.c ****   {
 642              		.loc 1 106 45 is_stmt 0 discriminator 3 view .LVU182
 643 005a 0135     		adds	r5, r5, #1
 644              	.LVL26:
 645              	.L40:
 106:Core/Src/main.c ****   {
 646              		.loc 1 106 23 is_stmt 1 discriminator 1 view .LVU183
 106:Core/Src/main.c ****   {
 647              		.loc 1 106 3 is_stmt 0 discriminator 1 view .LVU184
 648 005c B5F5FA6F 		cmp	r5, #2000
 649 0060 DFDB     		blt	.L41
 650              	.LBE11:
 113:Core/Src/main.c ****   IMU.Gy_Callib /= 2000;
 651              		.loc 1 113 3 is_stmt 1 view .LVU185
 113:Core/Src/main.c ****   IMU.Gy_Callib /= 2000;
 652              		.loc 1 113 17 is_stmt 0 view .LVU186
 653 0062 284B     		ldr	r3, .L44
 654 0064 D3ED036A 		vldr.32	s13, [r3, #12]
 655 0068 DFED277A 		vldr.32	s15, .L44+4
 656 006c 86EEA77A 		vdiv.f32	s14, s13, s15
 657 0070 83ED037A 		vstr.32	s14, [r3, #12]
 114:Core/Src/main.c ****   IMU.Gz_Callib /= 2000;
 658              		.loc 1 114 3 is_stmt 1 view .LVU187
 114:Core/Src/main.c ****   IMU.Gz_Callib /= 2000;
 659              		.loc 1 114 17 is_stmt 0 view .LVU188
 660 0074 D3ED046A 		vldr.32	s13, [r3, #16]
 661 0078 86EEA77A 		vdiv.f32	s14, s13, s15
 662 007c 83ED047A 		vstr.32	s14, [r3, #16]
 115:Core/Src/main.c **** 
 663              		.loc 1 115 3 is_stmt 1 view .LVU189
 115:Core/Src/main.c **** 
 664              		.loc 1 115 17 is_stmt 0 view .LVU190
 665 0080 D3ED056A 		vldr.32	s13, [r3, #20]
 666 0084 86EEA77A 		vdiv.f32	s14, s13, s15
 667 0088 83ED057A 		vstr.32	s14, [r3, #20]
 668              	.LVL27:
 669              	.L42:
 121:Core/Src/main.c ****   {
 670              		.loc 1 121 3 is_stmt 1 discriminator 1 view .LVU191
 671              	.LBB12:
 124:Core/Src/main.c ****     IMU.Gx-=IMU.Gx_Callib;
 672              		.loc 1 124 5 discriminator 1 view .LVU192
 673 008c 1D4C     		ldr	r4, .L44
 674 008e 2046     		mov	r0, r4
 675 0090 FFF7FEFF 		bl	MPU6050_Read
 676              	.LVL28:
 125:Core/Src/main.c ****     IMU.Gy-=IMU.Gy_Callib;
 677              		.loc 1 125 5 discriminator 1 view .LVU193
 125:Core/Src/main.c ****     IMU.Gy-=IMU.Gy_Callib;
 678              		.loc 1 125 16 is_stmt 0 discriminator 1 view .LVU194
 679 0094 94ED037A 		vldr.32	s14, [r4, #12]
 125:Core/Src/main.c ****     IMU.Gy-=IMU.Gy_Callib;
 680              		.loc 1 125 11 discriminator 1 view .LVU195
 681 0098 D4ED007A 		vldr.32	s15, [r4]
 682 009c 77EEC77A 		vsub.f32	s15, s15, s14
ARM GAS  C:\Users\triet\AppData\Local\Temp\ccG8T9H5.s 			page 24


 683 00a0 C4ED007A 		vstr.32	s15, [r4]
 126:Core/Src/main.c ****     IMU.Gz-=IMU.Gz_Callib;
 684              		.loc 1 126 5 is_stmt 1 discriminator 1 view .LVU196
 126:Core/Src/main.c ****     IMU.Gz-=IMU.Gz_Callib;
 685              		.loc 1 126 16 is_stmt 0 discriminator 1 view .LVU197
 686 00a4 94ED047A 		vldr.32	s14, [r4, #16]
 126:Core/Src/main.c ****     IMU.Gz-=IMU.Gz_Callib;
 687              		.loc 1 126 11 discriminator 1 view .LVU198
 688 00a8 D4ED017A 		vldr.32	s15, [r4, #4]
 689 00ac 77EEC77A 		vsub.f32	s15, s15, s14
 690 00b0 C4ED017A 		vstr.32	s15, [r4, #4]
 127:Core/Src/main.c ****     /* USER CODE END WHILE */
 691              		.loc 1 127 5 is_stmt 1 discriminator 1 view .LVU199
 127:Core/Src/main.c ****     /* USER CODE END WHILE */
 692              		.loc 1 127 16 is_stmt 0 discriminator 1 view .LVU200
 693 00b4 94ED057A 		vldr.32	s14, [r4, #20]
 127:Core/Src/main.c ****     /* USER CODE END WHILE */
 694              		.loc 1 127 11 discriminator 1 view .LVU201
 695 00b8 D4ED027A 		vldr.32	s15, [r4, #8]
 696 00bc 77EEC77A 		vsub.f32	s15, s15, s14
 697 00c0 C4ED027A 		vstr.32	s15, [r4, #8]
 131:Core/Src/main.c ****     sprintf(Pitch,"Pitch: %.2f ",IMU.Pitch);
 698              		.loc 1 131 5 is_stmt 1 discriminator 1 view .LVU202
 699 00c4 206B     		ldr	r0, [r4, #48]	@ float
 700 00c6 FFF7FEFF 		bl	__aeabi_f2d
 701              	.LVL29:
 702 00ca 0246     		mov	r2, r0
 703 00cc 0B46     		mov	r3, r1
 704 00ce 0F4E     		ldr	r6, .L44+8
 705 00d0 0F49     		ldr	r1, .L44+12
 706 00d2 3046     		mov	r0, r6
 707 00d4 FFF7FEFF 		bl	sprintf
 708              	.LVL30:
 132:Core/Src/main.c ****     HAL_UART_Transmit_IT(&huart2, Roll, sizeof(Roll));
 709              		.loc 1 132 5 discriminator 1 view .LVU203
 710 00d8 606B     		ldr	r0, [r4, #52]	@ float
 711 00da FFF7FEFF 		bl	__aeabi_f2d
 712              	.LVL31:
 713 00de 0246     		mov	r2, r0
 714 00e0 0B46     		mov	r3, r1
 715 00e2 0C4D     		ldr	r5, .L44+16
 716 00e4 0C49     		ldr	r1, .L44+20
 717 00e6 2846     		mov	r0, r5
 718 00e8 FFF7FEFF 		bl	sprintf
 719              	.LVL32:
 133:Core/Src/main.c ****     HAL_UART_Transmit_IT(&huart2, Pitch, sizeof(Pitch));
 720              		.loc 1 133 5 discriminator 1 view .LVU204
 721 00ec 0B4C     		ldr	r4, .L44+24
 722 00ee 1E22     		movs	r2, #30
 723 00f0 3146     		mov	r1, r6
 724 00f2 2046     		mov	r0, r4
 725 00f4 FFF7FEFF 		bl	HAL_UART_Transmit_IT
 726              	.LVL33:
 134:Core/Src/main.c **** 
 727              		.loc 1 134 5 discriminator 1 view .LVU205
 728 00f8 1E22     		movs	r2, #30
 729 00fa 2946     		mov	r1, r5
ARM GAS  C:\Users\triet\AppData\Local\Temp\ccG8T9H5.s 			page 25


 730 00fc 2046     		mov	r0, r4
 731 00fe FFF7FEFF 		bl	HAL_UART_Transmit_IT
 732              	.LVL34:
 733              	.LBE12:
 121:Core/Src/main.c ****   {
 734              		.loc 1 121 9 discriminator 1 view .LVU206
 735 0102 C3E7     		b	.L42
 736              	.L45:
 737              		.align	2
 738              	.L44:
 739 0104 00000000 		.word	.LANCHOR5
 740 0108 0000FA44 		.word	1157234688
 741 010c 00000000 		.word	.LANCHOR0
 742 0110 00000000 		.word	.LC0
 743 0114 00000000 		.word	.LANCHOR2
 744 0118 0C000000 		.word	.LC1
 745 011c 00000000 		.word	.LANCHOR1
 746              		.cfi_endproc
 747              	.LFE131:
 749              		.global	Pitch
 750              		.global	Roll
 751              		.global	IMU
 752              		.global	huart2
 753              		.global	huart1
 754              		.global	hi2c1
 755              		.section	.bss.IMU,"aw",%nobits
 756              		.align	2
 757              		.set	.LANCHOR5,. + 0
 760              	IMU:
 761 0000 00000000 		.space	64
 761      00000000 
 761      00000000 
 761      00000000 
 761      00000000 
 762              		.section	.bss.Pitch,"aw",%nobits
 763              		.align	2
 764              		.set	.LANCHOR2,. + 0
 767              	Pitch:
 768 0000 00000000 		.space	30
 768      00000000 
 768      00000000 
 768      00000000 
 768      00000000 
 769              		.section	.bss.Roll,"aw",%nobits
 770              		.align	2
 771              		.set	.LANCHOR0,. + 0
 774              	Roll:
 775 0000 00000000 		.space	30
 775      00000000 
 775      00000000 
 775      00000000 
 775      00000000 
 776              		.section	.bss.hi2c1,"aw",%nobits
 777              		.align	2
 778              		.set	.LANCHOR3,. + 0
 781              	hi2c1:
 782 0000 00000000 		.space	84
ARM GAS  C:\Users\triet\AppData\Local\Temp\ccG8T9H5.s 			page 26


 782      00000000 
 782      00000000 
 782      00000000 
 782      00000000 
 783              		.section	.bss.huart1,"aw",%nobits
 784              		.align	2
 785              		.set	.LANCHOR4,. + 0
 788              	huart1:
 789 0000 00000000 		.space	68
 789      00000000 
 789      00000000 
 789      00000000 
 789      00000000 
 790              		.section	.bss.huart2,"aw",%nobits
 791              		.align	2
 792              		.set	.LANCHOR1,. + 0
 795              	huart2:
 796 0000 00000000 		.space	68
 796      00000000 
 796      00000000 
 796      00000000 
 796      00000000 
 797              		.text
 798              	.Letext0:
 799              		.file 3 "c:\\program files (x86)\\gnu arm embedded toolchain\\10 2021.10\\arm-none-eabi\\include\\
 800              		.file 4 "c:\\program files (x86)\\gnu arm embedded toolchain\\10 2021.10\\arm-none-eabi\\include\\
 801              		.file 5 "Drivers/CMSIS/Device/ST/STM32F4xx/Include/stm32f446xx.h"
 802              		.file 6 "Drivers/STM32F4xx_HAL_Driver/Inc/stm32f4xx_hal_def.h"
 803              		.file 7 "Drivers/STM32F4xx_HAL_Driver/Inc/stm32f4xx_hal_rcc_ex.h"
 804              		.file 8 "Drivers/STM32F4xx_HAL_Driver/Inc/stm32f4xx_hal_rcc.h"
 805              		.file 9 "Drivers/STM32F4xx_HAL_Driver/Inc/stm32f4xx_hal_dma.h"
 806              		.file 10 "Drivers/STM32F4xx_HAL_Driver/Inc/stm32f4xx_hal_i2c.h"
 807              		.file 11 "Drivers/STM32F4xx_HAL_Driver/Inc/stm32f4xx_hal_uart.h"
 808              		.file 12 "Core/Inc/mpu6050.h"
 809              		.file 13 "Drivers/STM32F4xx_HAL_Driver/Inc/stm32f4xx_hal_pwr_ex.h"
 810              		.file 14 "<built-in>"
 811              		.file 15 "Drivers/STM32F4xx_HAL_Driver/Inc/stm32f4xx_hal.h"
ARM GAS  C:\Users\triet\AppData\Local\Temp\ccG8T9H5.s 			page 27


DEFINED SYMBOLS
                            *ABS*:00000000 main.c
C:\Users\triet\AppData\Local\Temp\ccG8T9H5.s:20     .text.MX_GPIO_Init:00000000 $t
C:\Users\triet\AppData\Local\Temp\ccG8T9H5.s:25     .text.MX_GPIO_Init:00000000 MX_GPIO_Init
C:\Users\triet\AppData\Local\Temp\ccG8T9H5.s:95     .text.MX_GPIO_Init:00000048 $d
C:\Users\triet\AppData\Local\Temp\ccG8T9H5.s:100    .text.HAL_UART_TxCpltCallback:00000000 $t
C:\Users\triet\AppData\Local\Temp\ccG8T9H5.s:106    .text.HAL_UART_TxCpltCallback:00000000 HAL_UART_TxCpltCallback
C:\Users\triet\AppData\Local\Temp\ccG8T9H5.s:139    .text.HAL_UART_TxCpltCallback:0000001c $d
C:\Users\triet\AppData\Local\Temp\ccG8T9H5.s:146    .text.Error_Handler:00000000 $t
C:\Users\triet\AppData\Local\Temp\ccG8T9H5.s:152    .text.Error_Handler:00000000 Error_Handler
C:\Users\triet\AppData\Local\Temp\ccG8T9H5.s:184    .text.MX_I2C1_Init:00000000 $t
C:\Users\triet\AppData\Local\Temp\ccG8T9H5.s:189    .text.MX_I2C1_Init:00000000 MX_I2C1_Init
C:\Users\triet\AppData\Local\Temp\ccG8T9H5.s:247    .text.MX_I2C1_Init:0000002c $d
C:\Users\triet\AppData\Local\Temp\ccG8T9H5.s:254    .text.MX_USART1_UART_Init:00000000 $t
C:\Users\triet\AppData\Local\Temp\ccG8T9H5.s:259    .text.MX_USART1_UART_Init:00000000 MX_USART1_UART_Init
C:\Users\triet\AppData\Local\Temp\ccG8T9H5.s:314    .text.MX_USART1_UART_Init:0000002c $d
C:\Users\triet\AppData\Local\Temp\ccG8T9H5.s:320    .text.MX_USART2_UART_Init:00000000 $t
C:\Users\triet\AppData\Local\Temp\ccG8T9H5.s:325    .text.MX_USART2_UART_Init:00000000 MX_USART2_UART_Init
C:\Users\triet\AppData\Local\Temp\ccG8T9H5.s:380    .text.MX_USART2_UART_Init:0000002c $d
C:\Users\triet\AppData\Local\Temp\ccG8T9H5.s:386    .text.SystemClock_Config:00000000 $t
C:\Users\triet\AppData\Local\Temp\ccG8T9H5.s:392    .text.SystemClock_Config:00000000 SystemClock_Config
C:\Users\triet\AppData\Local\Temp\ccG8T9H5.s:552    .text.SystemClock_Config:000000ac $d
C:\Users\triet\AppData\Local\Temp\ccG8T9H5.s:559    .rodata.main.str1.4:00000000 $d
C:\Users\triet\AppData\Local\Temp\ccG8T9H5.s:566    .text.main:00000000 $t
C:\Users\triet\AppData\Local\Temp\ccG8T9H5.s:572    .text.main:00000000 main
C:\Users\triet\AppData\Local\Temp\ccG8T9H5.s:739    .text.main:00000104 $d
C:\Users\triet\AppData\Local\Temp\ccG8T9H5.s:767    .bss.Pitch:00000000 Pitch
C:\Users\triet\AppData\Local\Temp\ccG8T9H5.s:774    .bss.Roll:00000000 Roll
C:\Users\triet\AppData\Local\Temp\ccG8T9H5.s:760    .bss.IMU:00000000 IMU
C:\Users\triet\AppData\Local\Temp\ccG8T9H5.s:795    .bss.huart2:00000000 huart2
C:\Users\triet\AppData\Local\Temp\ccG8T9H5.s:788    .bss.huart1:00000000 huart1
C:\Users\triet\AppData\Local\Temp\ccG8T9H5.s:781    .bss.hi2c1:00000000 hi2c1
C:\Users\triet\AppData\Local\Temp\ccG8T9H5.s:756    .bss.IMU:00000000 $d
C:\Users\triet\AppData\Local\Temp\ccG8T9H5.s:763    .bss.Pitch:00000000 $d
C:\Users\triet\AppData\Local\Temp\ccG8T9H5.s:770    .bss.Roll:00000000 $d
C:\Users\triet\AppData\Local\Temp\ccG8T9H5.s:777    .bss.hi2c1:00000000 $d
C:\Users\triet\AppData\Local\Temp\ccG8T9H5.s:784    .bss.huart1:00000000 $d
C:\Users\triet\AppData\Local\Temp\ccG8T9H5.s:791    .bss.huart2:00000000 $d

UNDEFINED SYMBOLS
HAL_UART_Transmit_IT
HAL_I2C_Init
HAL_UART_Init
memset
HAL_RCC_OscConfig
HAL_PWREx_EnableOverDrive
HAL_RCC_ClockConfig
__aeabi_f2d
HAL_Init
MPU6050_Init
MPU6050_Read
sprintf
