ARM GAS  C:\Users\pc\AppData\Local\Temp\ccXXeMaj.s 			page 1


   1              		.cpu cortex-m4
   2              		.arch armv7e-m
   3              		.fpu fpv4-sp-d16
   4              		.eabi_attribute 27, 1
   5              		.eabi_attribute 28, 1
   6              		.eabi_attribute 20, 1
   7              		.eabi_attribute 21, 1
   8              		.eabi_attribute 23, 3
   9              		.eabi_attribute 24, 1
  10              		.eabi_attribute 25, 1
  11              		.eabi_attribute 26, 1
  12              		.eabi_attribute 30, 1
  13              		.eabi_attribute 34, 1
  14              		.eabi_attribute 18, 4
  15              		.file	"main.c"
  16              		.text
  17              	.Ltext0:
  18              		.cfi_sections	.debug_frame
  19              		.file 1 "Core/Src/main.c"
  20              		.section	.text.MX_GPIO_Init,"ax",%progbits
  21              		.align	1
  22              		.syntax unified
  23              		.thumb
  24              		.thumb_func
  26              	MX_GPIO_Init:
  27              	.LFB140:
   1:Core/Src/main.c **** /* USER CODE BEGIN Header */
   2:Core/Src/main.c **** /**
   3:Core/Src/main.c ****   ******************************************************************************
   4:Core/Src/main.c ****   * @file           : main.c
   5:Core/Src/main.c ****   * @brief          : Main program body
   6:Core/Src/main.c ****   ******************************************************************************
   7:Core/Src/main.c ****   * @attention
   8:Core/Src/main.c ****   *
   9:Core/Src/main.c ****   * Copyright (c) 2023 STMicroelectronics.
  10:Core/Src/main.c ****   * All rights reserved.
  11:Core/Src/main.c ****   *
  12:Core/Src/main.c ****   * This software is licensed under terms that can be found in the LICENSE file
  13:Core/Src/main.c ****   * in the root directory of this software component.
  14:Core/Src/main.c ****   * If no LICENSE file comes with this software, it is provided AS-IS.
  15:Core/Src/main.c ****   *
  16:Core/Src/main.c ****   ******************************************************************************
  17:Core/Src/main.c ****   */
  18:Core/Src/main.c **** /* USER CODE END Header */
  19:Core/Src/main.c **** /* Includes ------------------------------------------------------------------*/
  20:Core/Src/main.c **** #include "main.h"
  21:Core/Src/main.c **** 
  22:Core/Src/main.c **** /* Private includes ----------------------------------------------------------*/
  23:Core/Src/main.c **** /* USER CODE BEGIN Includes */
  24:Core/Src/main.c **** #include <mpu6050.h>
  25:Core/Src/main.c **** #include <kalman_filter.h>
  26:Core/Src/main.c **** #include <bmp180_for_stm32_hal.h>
  27:Core/Src/main.c **** #include <HMC5883L.h>
  28:Core/Src/main.c **** /* USER CODE END Includes */
  29:Core/Src/main.c **** 
  30:Core/Src/main.c **** /* Private typedef -----------------------------------------------------------*/
  31:Core/Src/main.c **** /* USER CODE BEGIN PTD */
ARM GAS  C:\Users\pc\AppData\Local\Temp\ccXXeMaj.s 			page 2


  32:Core/Src/main.c **** 
  33:Core/Src/main.c **** /* USER CODE END PTD */
  34:Core/Src/main.c **** 
  35:Core/Src/main.c **** /* Private define ------------------------------------------------------------*/
  36:Core/Src/main.c **** /* USER CODE BEGIN PD */
  37:Core/Src/main.c **** 
  38:Core/Src/main.c **** /* USER CODE END PD */
  39:Core/Src/main.c **** 
  40:Core/Src/main.c **** /* Private macro -------------------------------------------------------------*/
  41:Core/Src/main.c **** /* USER CODE BEGIN PM */
  42:Core/Src/main.c **** 
  43:Core/Src/main.c **** /* USER CODE END PM */
  44:Core/Src/main.c **** 
  45:Core/Src/main.c **** /* Private variables ---------------------------------------------------------*/
  46:Core/Src/main.c **** I2C_HandleTypeDef hi2c1;
  47:Core/Src/main.c **** 
  48:Core/Src/main.c **** TIM_HandleTypeDef htim2;
  49:Core/Src/main.c **** TIM_HandleTypeDef htim3;
  50:Core/Src/main.c **** DMA_HandleTypeDef hdma_tim2_ch2_ch4;
  51:Core/Src/main.c **** DMA_HandleTypeDef hdma_tim2_up_ch3;
  52:Core/Src/main.c **** DMA_HandleTypeDef hdma_tim3_ch2;
  53:Core/Src/main.c **** DMA_HandleTypeDef hdma_tim3_ch1_trig;
  54:Core/Src/main.c **** 
  55:Core/Src/main.c **** UART_HandleTypeDef huart1;
  56:Core/Src/main.c **** UART_HandleTypeDef huart2;
  57:Core/Src/main.c **** 
  58:Core/Src/main.c **** /* USER CODE BEGIN PV */
  59:Core/Src/main.c **** typedef struct
  60:Core/Src/main.c **** {
  61:Core/Src/main.c ****   int8_t Error;
  62:Core/Src/main.c ****   int8_t PreviousError;
  63:Core/Src/main.c ****   int8_t P;
  64:Core/Src/main.c ****   int8_t I;
  65:Core/Src/main.c ****   int8_t D;
  66:Core/Src/main.c **** 
  67:Core/Src/main.c ****   float Kp;
  68:Core/Src/main.c ****   float Ki;
  69:Core/Src/main.c ****   float Kd;
  70:Core/Src/main.c ****   float PID;
  71:Core/Src/main.c **** 
  72:Core/Src/main.c ****   uint16_t Roll_M;
  73:Core/Src/main.c ****   uint16_t Pitch_M;
  74:Core/Src/main.c **** 
  75:Core/Src/main.c ****   uint16_t M1; 
  76:Core/Src/main.c ****   uint16_t M2; 
  77:Core/Src/main.c ****   uint16_t M3; 
  78:Core/Src/main.c ****   uint16_t M4; 
  79:Core/Src/main.c **** 
  80:Core/Src/main.c **** }MotorControl;
  81:Core/Src/main.c **** 
  82:Core/Src/main.c **** mpu6050_t IMU; 
  83:Core/Src/main.c **** 
  84:Core/Src/main.c **** MotorControl motor = 
  85:Core/Src/main.c **** { 
  86:Core/Src/main.c ****   .Kp = 8, 
  87:Core/Src/main.c ****   .Ki = 15, 
  88:Core/Src/main.c ****   .Kd = 1 
ARM GAS  C:\Users\pc\AppData\Local\Temp\ccXXeMaj.s 			page 3


  89:Core/Src/main.c **** };
  90:Core/Src/main.c **** 
  91:Core/Src/main.c **** kalman_t Kalman =
  92:Core/Src/main.c **** {
  93:Core/Src/main.c ****   .Q_theta = 0.003f,
  94:Core/Src/main.c ****   .Q_theta_dot = 0.001f,
  95:Core/Src/main.c ****   .R = 0.01f
  96:Core/Src/main.c **** };
  97:Core/Src/main.c **** 
  98:Core/Src/main.c **** 
  99:Core/Src/main.c **** double KalmanX;
 100:Core/Src/main.c **** double KalmanY;
 101:Core/Src/main.c **** float Roll_Input;
 102:Core/Src/main.c **** float Pitch_Input;
 103:Core/Src/main.c **** uint16_t Throttle_Input = 100;
 104:Core/Src/main.c **** float Yaw_Input = 0;
 105:Core/Src/main.c **** char Roll[30];
 106:Core/Src/main.c **** char Pitch[30];
 107:Core/Src/main.c **** char elapsedTimer[30];
 108:Core/Src/main.c **** uint32_t last_time;
 109:Core/Src/main.c **** 
 110:Core/Src/main.c **** 
 111:Core/Src/main.c **** 
 112:Core/Src/main.c **** /* USER CODE END PV */
 113:Core/Src/main.c **** 
 114:Core/Src/main.c **** /* Private function prototypes -----------------------------------------------*/
 115:Core/Src/main.c **** void SystemClock_Config(void);
 116:Core/Src/main.c **** static void MX_GPIO_Init(void);
 117:Core/Src/main.c **** static void MX_DMA_Init(void);
 118:Core/Src/main.c **** static void MX_I2C1_Init(void);
 119:Core/Src/main.c **** static void MX_USART1_UART_Init(void);
 120:Core/Src/main.c **** static void MX_USART2_UART_Init(void);
 121:Core/Src/main.c **** static void MX_TIM2_Init(void);
 122:Core/Src/main.c **** static void MX_TIM3_Init(void);
 123:Core/Src/main.c **** /* USER CODE BEGIN PFP */
 124:Core/Src/main.c **** 
 125:Core/Src/main.c **** /* USER CODE END PFP */
 126:Core/Src/main.c **** 
 127:Core/Src/main.c **** /* Private user code ---------------------------------------------------------*/
 128:Core/Src/main.c **** /* USER CODE BEGIN 0 */
 129:Core/Src/main.c **** 
 130:Core/Src/main.c **** 
 131:Core/Src/main.c **** double PID_Control(double Desired_Angle ,double Angle, float dt)
 132:Core/Src/main.c **** {
 133:Core/Src/main.c ****   /* PID calculation */
 134:Core/Src/main.c ****   motor.Error = Desired_Angle - Angle;
 135:Core/Src/main.c ****   motor.P =  motor.Error;
 136:Core/Src/main.c ****   motor.I += (motor.Error*dt);
 137:Core/Src/main.c ****   /* prevent I term saturation*/
 138:Core/Src/main.c ****   if(motor.I > 400) motor.I = 400;
 139:Core/Src/main.c ****   else if(motor.I < -400) motor.I = -400;
 140:Core/Src/main.c ****   motor.D = ((motor.PreviousError - motor.Error)/dt);
 141:Core/Src/main.c ****   motor.PID = motor.Kp*motor.P + motor.Ki*motor.I + motor.Kd*motor.D;
 142:Core/Src/main.c **** 
 143:Core/Src/main.c ****   return motor.PID;
 144:Core/Src/main.c **** }
 145:Core/Src/main.c **** 
ARM GAS  C:\Users\pc\AppData\Local\Temp\ccXXeMaj.s 			page 4


 146:Core/Src/main.c **** void motorControl(int Throttle, double Roll, double Pitch, double Yaw)
 147:Core/Src/main.c **** {
 148:Core/Src/main.c ****   motor.M1 = 1100 + Throttle - Roll - Pitch + Yaw; // CCW - Front left   - D3 
 149:Core/Src/main.c ****   motor.M2 = 1100 + Throttle + Roll - Pitch - Yaw; // CW  - Back right   - D6 
 150:Core/Src/main.c ****   motor.M3 = 1100 + Throttle + Roll + Pitch + Yaw; // CCW - Front right  - D5 
 151:Core/Src/main.c ****   motor.M4 = 1100 + Throttle + Roll - Pitch - Yaw; // CW  - Back left    - D4  
 152:Core/Src/main.c ****  
 153:Core/Src/main.c ****   if (motor.M1 > 1500) motor.M1 = 1500;
 154:Core/Src/main.c ****   if (motor.M2 > 1500) motor.M2 = 1500;
 155:Core/Src/main.c ****   if (motor.M3 > 1500) motor.M3 = 1500;
 156:Core/Src/main.c ****   if (motor.M4 > 1500) motor.M4 = 1500;
 157:Core/Src/main.c **** 
 158:Core/Src/main.c ****   // prevent.motor cut-off
 159:Core/Src/main.c ****   if (motor.M1 < 1150) motor.M1 = 1150; 
 160:Core/Src/main.c ****   if (motor.M2 < 1150) motor.M2 = 1150;
 161:Core/Src/main.c ****   if (motor.M3 < 1150) motor.M3 = 1150;
 162:Core/Src/main.c ****   if (motor.M4 < 1150) motor.M4 = 1150;
 163:Core/Src/main.c **** 
 164:Core/Src/main.c ****   TIM2->CCR2 = motor.M1; // PB3  - D3 
 165:Core/Src/main.c ****   TIM2->CCR3 = motor.M2; // PB10 - D6
 166:Core/Src/main.c ****   TIM3->CCR1 = motor.M3; // PB4  - D5  
 167:Core/Src/main.c ****   TIM3->CCR2 = motor.M4; // PB5  - D4 
 168:Core/Src/main.c **** 
 169:Core/Src/main.c ****   HAL_TIM_PWM_Start(&htim2,TIM_CHANNEL_2);
 170:Core/Src/main.c ****   HAL_TIM_PWM_Start(&htim2,TIM_CHANNEL_3);
 171:Core/Src/main.c ****   HAL_TIM_PWM_Start(&htim3,TIM_CHANNEL_1);
 172:Core/Src/main.c ****   HAL_TIM_PWM_Start(&htim3,TIM_CHANNEL_2);
 173:Core/Src/main.c **** }
 174:Core/Src/main.c **** 
 175:Core/Src/main.c **** 
 176:Core/Src/main.c **** /* USER CODE END 0 */
 177:Core/Src/main.c **** 
 178:Core/Src/main.c **** /**
 179:Core/Src/main.c ****   * @brief  The application entry point.
 180:Core/Src/main.c ****   * @retval int
 181:Core/Src/main.c ****   */
 182:Core/Src/main.c **** int main(void)
 183:Core/Src/main.c **** {
 184:Core/Src/main.c ****   /* USER CODE BEGIN 1 */
 185:Core/Src/main.c **** 
 186:Core/Src/main.c ****   /* USER CODE END 1 */
 187:Core/Src/main.c **** 
 188:Core/Src/main.c ****   /* MCU Configuration--------------------------------------------------------*/
 189:Core/Src/main.c **** 
 190:Core/Src/main.c ****   /* Reset of all peripherals, Initializes the Flash interface and the Systick. */
 191:Core/Src/main.c ****   HAL_Init();
 192:Core/Src/main.c **** 
 193:Core/Src/main.c ****   /* USER CODE BEGIN Init */
 194:Core/Src/main.c **** 
 195:Core/Src/main.c ****   /* USER CODE END Init */
 196:Core/Src/main.c **** 
 197:Core/Src/main.c ****   /* Configure the system clock */
 198:Core/Src/main.c ****   SystemClock_Config();
 199:Core/Src/main.c **** 
 200:Core/Src/main.c ****   /* USER CODE BEGIN SysInit */
 201:Core/Src/main.c **** 
 202:Core/Src/main.c ****   /* USER CODE END SysInit */
ARM GAS  C:\Users\pc\AppData\Local\Temp\ccXXeMaj.s 			page 5


 203:Core/Src/main.c **** 
 204:Core/Src/main.c ****   /* Initialize all configured peripherals */
 205:Core/Src/main.c ****   MX_GPIO_Init();
 206:Core/Src/main.c ****   MX_DMA_Init();
 207:Core/Src/main.c ****   MX_I2C1_Init();
 208:Core/Src/main.c ****   MX_USART1_UART_Init();
 209:Core/Src/main.c ****   MX_USART2_UART_Init();
 210:Core/Src/main.c ****   MX_TIM2_Init();
 211:Core/Src/main.c ****   MX_TIM3_Init();
 212:Core/Src/main.c ****   /* USER CODE BEGIN 2 */
 213:Core/Src/main.c ****   MPU6050_Init();
 214:Core/Src/main.c ****   BMP180_Init(&hi2c1);
 215:Core/Src/main.c **** 	BMP180_SetOversampling(BMP180_ULTRA);
 216:Core/Src/main.c ****   BMP180_UpdateCalibrationData();
 217:Core/Src/main.c ****   
 218:Core/Src/main.c ****   for(int callib=0; callib < 2000; callib++)
 219:Core/Src/main.c ****   {
 220:Core/Src/main.c ****       MPU6050_Read(&IMU);
 221:Core/Src/main.c ****       IMU.Gx_Callib+=IMU.Gx;
 222:Core/Src/main.c ****       IMU.Gy_Callib+=IMU.Gy;
 223:Core/Src/main.c ****       IMU.Gz_Callib+=IMU.Gz;
 224:Core/Src/main.c ****       HAL_Delay(1);
 225:Core/Src/main.c ****   }
 226:Core/Src/main.c **** 
 227:Core/Src/main.c ****   IMU.Gx_Callib/=2000;
 228:Core/Src/main.c ****   IMU.Gy_Callib/=2000;
 229:Core/Src/main.c ****   IMU.Gz_Callib/=2000;
 230:Core/Src/main.c **** 
 231:Core/Src/main.c ****   
 232:Core/Src/main.c ****   /* USER CODE END 2 */
 233:Core/Src/main.c **** 
 234:Core/Src/main.c ****   /* Infinite loop */
 235:Core/Src/main.c ****   /* USER CODE BEGIN WHILE */
 236:Core/Src/main.c ****   while (1)
 237:Core/Src/main.c ****   {
 238:Core/Src/main.c ****     uint32_t current_time = HAL_GetTick();
 239:Core/Src/main.c ****   float dt =(float)(current_time - last_time) / 1.0; // 250 Hz deriverive 
 240:Core/Src/main.c ****   
 241:Core/Src/main.c ****     MPU6050_Read(&IMU);
 242:Core/Src/main.c ****     IMU.Gx -= IMU.Gx_Callib;
 243:Core/Src/main.c ****     IMU.Gy -= IMU.Gy_Callib;
 244:Core/Src/main.c ****     IMU.Gz -= IMU.Gz_Callib;
 245:Core/Src/main.c ****     /* USER CODE END WHILE */
 246:Core/Src/main.c ****     
 247:Core/Src/main.c ****     KalmanY  = Kalman_Filter(&Kalman, IMU.Gx, IMU.Roll, dt);
 248:Core/Src/main.c ****     KalmanX = Kalman_Filter(&Kalman, IMU.Gy, IMU.Pitch, dt);
 249:Core/Src/main.c **** 
 250:Core/Src/main.c ****     Roll_Input  = PID_Control(0, KalmanX, dt);
 251:Core/Src/main.c ****     Pitch_Input = PID_Control(0, KalmanY, dt);
 252:Core/Src/main.c ****  
 253:Core/Src/main.c ****     motorControl(Throttle_Input, Roll_Input, Pitch_Input, Yaw_Input);
 254:Core/Src/main.c ****     last_time = current_time;
 255:Core/Src/main.c ****     /* USER CODE BEGIN 3 */
 256:Core/Src/main.c ****     sprintf(Roll,"Roll_Input: %.2f ",KalmanY);
 257:Core/Src/main.c ****     sprintf(Pitch,"Pitch_Input: %.2f\n",KalmanX);
 258:Core/Src/main.c ****     HAL_UART_Transmit(&huart2, Roll, sizeof(Roll),100);
 259:Core/Src/main.c ****     HAL_UART_Transmit(&huart2, Pitch, sizeof(Pitch),100);
ARM GAS  C:\Users\pc\AppData\Local\Temp\ccXXeMaj.s 			page 6


 260:Core/Src/main.c ****     /**
 261:Core/Src/main.c ****   
 262:Core/Src/main.c ****     * sprintf(Pitch,"Pitch: %.2f\n",KalmanPitch);
 263:Core/Src/main.c ****     * HAL_UART_Transmit(&huart2, Pitch, sizeof(Pitch),100);
 264:Core/Src/main.c ****     **/
 265:Core/Src/main.c ****     // sprintf(Roll,"Timer: %.2f\n",dt);
 266:Core/Src/main.c ****     // HAL_UART_Transmit(&huart2, Roll, sizeof(Roll),100);
 267:Core/Src/main.c **** 
 268:Core/Src/main.c ****     HAL_Delay(300);   
 269:Core/Src/main.c ****   }
 270:Core/Src/main.c ****   /* USER CODE END 3 */
 271:Core/Src/main.c **** }
 272:Core/Src/main.c **** 
 273:Core/Src/main.c **** /**
 274:Core/Src/main.c ****   * @brief System Clock Configuration
 275:Core/Src/main.c ****   * @retval None
 276:Core/Src/main.c ****   */
 277:Core/Src/main.c **** void SystemClock_Config(void)
 278:Core/Src/main.c **** {
 279:Core/Src/main.c ****   RCC_OscInitTypeDef RCC_OscInitStruct = {0};
 280:Core/Src/main.c ****   RCC_ClkInitTypeDef RCC_ClkInitStruct = {0};
 281:Core/Src/main.c **** 
 282:Core/Src/main.c ****   /** Configure the main internal regulator output voltage
 283:Core/Src/main.c ****   */
 284:Core/Src/main.c ****   __HAL_RCC_PWR_CLK_ENABLE();
 285:Core/Src/main.c ****   __HAL_PWR_VOLTAGESCALING_CONFIG(PWR_REGULATOR_VOLTAGE_SCALE1);
 286:Core/Src/main.c **** 
 287:Core/Src/main.c ****   /** Initializes the RCC Oscillators according to the specified parameters
 288:Core/Src/main.c ****   * in the RCC_OscInitTypeDef structure.
 289:Core/Src/main.c ****   */
 290:Core/Src/main.c ****   RCC_OscInitStruct.OscillatorType = RCC_OSCILLATORTYPE_HSE;
 291:Core/Src/main.c ****   RCC_OscInitStruct.HSEState = RCC_HSE_ON;
 292:Core/Src/main.c ****   RCC_OscInitStruct.PLL.PLLState = RCC_PLL_ON;
 293:Core/Src/main.c ****   RCC_OscInitStruct.PLL.PLLSource = RCC_PLLSOURCE_HSE;
 294:Core/Src/main.c ****   RCC_OscInitStruct.PLL.PLLM = 4;
 295:Core/Src/main.c ****   RCC_OscInitStruct.PLL.PLLN = 180;
 296:Core/Src/main.c ****   RCC_OscInitStruct.PLL.PLLP = RCC_PLLP_DIV2;
 297:Core/Src/main.c ****   RCC_OscInitStruct.PLL.PLLQ = 2;
 298:Core/Src/main.c ****   RCC_OscInitStruct.PLL.PLLR = 2;
 299:Core/Src/main.c ****   if (HAL_RCC_OscConfig(&RCC_OscInitStruct) != HAL_OK)
 300:Core/Src/main.c ****   {
 301:Core/Src/main.c ****     Error_Handler();
 302:Core/Src/main.c ****   }
 303:Core/Src/main.c **** 
 304:Core/Src/main.c ****   /** Activate the Over-Drive mode
 305:Core/Src/main.c ****   */
 306:Core/Src/main.c ****   if (HAL_PWREx_EnableOverDrive() != HAL_OK)
 307:Core/Src/main.c ****   {
 308:Core/Src/main.c ****     Error_Handler();
 309:Core/Src/main.c ****   }
 310:Core/Src/main.c **** 
 311:Core/Src/main.c ****   /** Initializes the CPU, AHB and APB buses clocks
 312:Core/Src/main.c ****   */
 313:Core/Src/main.c ****   RCC_ClkInitStruct.ClockType = RCC_CLOCKTYPE_HCLK|RCC_CLOCKTYPE_SYSCLK
 314:Core/Src/main.c ****                               |RCC_CLOCKTYPE_PCLK1|RCC_CLOCKTYPE_PCLK2;
 315:Core/Src/main.c ****   RCC_ClkInitStruct.SYSCLKSource = RCC_SYSCLKSOURCE_PLLCLK;
 316:Core/Src/main.c ****   RCC_ClkInitStruct.AHBCLKDivider = RCC_SYSCLK_DIV1;
ARM GAS  C:\Users\pc\AppData\Local\Temp\ccXXeMaj.s 			page 7


 317:Core/Src/main.c ****   RCC_ClkInitStruct.APB1CLKDivider = RCC_HCLK_DIV4;
 318:Core/Src/main.c ****   RCC_ClkInitStruct.APB2CLKDivider = RCC_HCLK_DIV2;
 319:Core/Src/main.c **** 
 320:Core/Src/main.c ****   if (HAL_RCC_ClockConfig(&RCC_ClkInitStruct, FLASH_LATENCY_5) != HAL_OK)
 321:Core/Src/main.c ****   {
 322:Core/Src/main.c ****     Error_Handler();
 323:Core/Src/main.c ****   }
 324:Core/Src/main.c **** }
 325:Core/Src/main.c **** 
 326:Core/Src/main.c **** /**
 327:Core/Src/main.c ****   * @brief I2C1 Initialization Function
 328:Core/Src/main.c ****   * @param None
 329:Core/Src/main.c ****   * @retval None
 330:Core/Src/main.c ****   */
 331:Core/Src/main.c **** static void MX_I2C1_Init(void)
 332:Core/Src/main.c **** {
 333:Core/Src/main.c **** 
 334:Core/Src/main.c ****   /* USER CODE BEGIN I2C1_Init 0 */
 335:Core/Src/main.c **** 
 336:Core/Src/main.c ****   /* USER CODE END I2C1_Init 0 */
 337:Core/Src/main.c **** 
 338:Core/Src/main.c ****   /* USER CODE BEGIN I2C1_Init 1 */
 339:Core/Src/main.c **** 
 340:Core/Src/main.c ****   /* USER CODE END I2C1_Init 1 */
 341:Core/Src/main.c ****   hi2c1.Instance = I2C1;
 342:Core/Src/main.c ****   hi2c1.Init.ClockSpeed = 100000;
 343:Core/Src/main.c ****   hi2c1.Init.DutyCycle = I2C_DUTYCYCLE_2;
 344:Core/Src/main.c ****   hi2c1.Init.OwnAddress1 = 0;
 345:Core/Src/main.c ****   hi2c1.Init.AddressingMode = I2C_ADDRESSINGMODE_7BIT;
 346:Core/Src/main.c ****   hi2c1.Init.DualAddressMode = I2C_DUALADDRESS_DISABLE;
 347:Core/Src/main.c ****   hi2c1.Init.OwnAddress2 = 0;
 348:Core/Src/main.c ****   hi2c1.Init.GeneralCallMode = I2C_GENERALCALL_DISABLE;
 349:Core/Src/main.c ****   hi2c1.Init.NoStretchMode = I2C_NOSTRETCH_DISABLE;
 350:Core/Src/main.c ****   if (HAL_I2C_Init(&hi2c1) != HAL_OK)
 351:Core/Src/main.c ****   {
 352:Core/Src/main.c ****     Error_Handler();
 353:Core/Src/main.c ****   }
 354:Core/Src/main.c ****   /* USER CODE BEGIN I2C1_Init 2 */
 355:Core/Src/main.c **** 
 356:Core/Src/main.c ****   /* USER CODE END I2C1_Init 2 */
 357:Core/Src/main.c **** 
 358:Core/Src/main.c **** }
 359:Core/Src/main.c **** 
 360:Core/Src/main.c **** /**
 361:Core/Src/main.c ****   * @brief TIM2 Initialization Function
 362:Core/Src/main.c ****   * @param None
 363:Core/Src/main.c ****   * @retval None
 364:Core/Src/main.c ****   */
 365:Core/Src/main.c **** static void MX_TIM2_Init(void)
 366:Core/Src/main.c **** {
 367:Core/Src/main.c **** 
 368:Core/Src/main.c ****   /* USER CODE BEGIN TIM2_Init 0 */
 369:Core/Src/main.c **** 
 370:Core/Src/main.c ****   /* USER CODE END TIM2_Init 0 */
 371:Core/Src/main.c **** 
 372:Core/Src/main.c ****   TIM_ClockConfigTypeDef sClockSourceConfig = {0};
 373:Core/Src/main.c ****   TIM_MasterConfigTypeDef sMasterConfig = {0};
ARM GAS  C:\Users\pc\AppData\Local\Temp\ccXXeMaj.s 			page 8


 374:Core/Src/main.c ****   TIM_OC_InitTypeDef sConfigOC = {0};
 375:Core/Src/main.c **** 
 376:Core/Src/main.c ****   /* USER CODE BEGIN TIM2_Init 1 */
 377:Core/Src/main.c **** 
 378:Core/Src/main.c ****   /* USER CODE END TIM2_Init 1 */
 379:Core/Src/main.c ****   htim2.Instance = TIM2;
 380:Core/Src/main.c ****   htim2.Init.Prescaler = 90-1;
 381:Core/Src/main.c ****   htim2.Init.CounterMode = TIM_COUNTERMODE_UP;
 382:Core/Src/main.c ****   htim2.Init.Period = 20000-1;
 383:Core/Src/main.c ****   htim2.Init.ClockDivision = TIM_CLOCKDIVISION_DIV1;
 384:Core/Src/main.c ****   htim2.Init.AutoReloadPreload = TIM_AUTORELOAD_PRELOAD_DISABLE;
 385:Core/Src/main.c ****   if (HAL_TIM_Base_Init(&htim2) != HAL_OK)
 386:Core/Src/main.c ****   {
 387:Core/Src/main.c ****     Error_Handler();
 388:Core/Src/main.c ****   }
 389:Core/Src/main.c ****   sClockSourceConfig.ClockSource = TIM_CLOCKSOURCE_INTERNAL;
 390:Core/Src/main.c ****   if (HAL_TIM_ConfigClockSource(&htim2, &sClockSourceConfig) != HAL_OK)
 391:Core/Src/main.c ****   {
 392:Core/Src/main.c ****     Error_Handler();
 393:Core/Src/main.c ****   }
 394:Core/Src/main.c ****   if (HAL_TIM_PWM_Init(&htim2) != HAL_OK)
 395:Core/Src/main.c ****   {
 396:Core/Src/main.c ****     Error_Handler();
 397:Core/Src/main.c ****   }
 398:Core/Src/main.c ****   sMasterConfig.MasterOutputTrigger = TIM_TRGO_RESET;
 399:Core/Src/main.c ****   sMasterConfig.MasterSlaveMode = TIM_MASTERSLAVEMODE_DISABLE;
 400:Core/Src/main.c ****   if (HAL_TIMEx_MasterConfigSynchronization(&htim2, &sMasterConfig) != HAL_OK)
 401:Core/Src/main.c ****   {
 402:Core/Src/main.c ****     Error_Handler();
 403:Core/Src/main.c ****   }
 404:Core/Src/main.c ****   sConfigOC.OCMode = TIM_OCMODE_PWM1;
 405:Core/Src/main.c ****   sConfigOC.Pulse = 0;
 406:Core/Src/main.c ****   sConfigOC.OCPolarity = TIM_OCPOLARITY_HIGH;
 407:Core/Src/main.c ****   sConfigOC.OCFastMode = TIM_OCFAST_DISABLE;
 408:Core/Src/main.c ****   if (HAL_TIM_PWM_ConfigChannel(&htim2, &sConfigOC, TIM_CHANNEL_2) != HAL_OK)
 409:Core/Src/main.c ****   {
 410:Core/Src/main.c ****     Error_Handler();
 411:Core/Src/main.c ****   }
 412:Core/Src/main.c ****   if (HAL_TIM_PWM_ConfigChannel(&htim2, &sConfigOC, TIM_CHANNEL_3) != HAL_OK)
 413:Core/Src/main.c ****   {
 414:Core/Src/main.c ****     Error_Handler();
 415:Core/Src/main.c ****   }
 416:Core/Src/main.c ****   /* USER CODE BEGIN TIM2_Init 2 */
 417:Core/Src/main.c **** 
 418:Core/Src/main.c ****   /* USER CODE END TIM2_Init 2 */
 419:Core/Src/main.c ****   HAL_TIM_MspPostInit(&htim2);
 420:Core/Src/main.c **** 
 421:Core/Src/main.c **** }
 422:Core/Src/main.c **** 
 423:Core/Src/main.c **** /**
 424:Core/Src/main.c ****   * @brief TIM3 Initialization Function
 425:Core/Src/main.c ****   * @param None
 426:Core/Src/main.c ****   * @retval None
 427:Core/Src/main.c ****   */
 428:Core/Src/main.c **** static void MX_TIM3_Init(void)
 429:Core/Src/main.c **** {
 430:Core/Src/main.c **** 
ARM GAS  C:\Users\pc\AppData\Local\Temp\ccXXeMaj.s 			page 9


 431:Core/Src/main.c ****   /* USER CODE BEGIN TIM3_Init 0 */
 432:Core/Src/main.c **** 
 433:Core/Src/main.c ****   /* USER CODE END TIM3_Init 0 */
 434:Core/Src/main.c **** 
 435:Core/Src/main.c ****   TIM_ClockConfigTypeDef sClockSourceConfig = {0};
 436:Core/Src/main.c ****   TIM_MasterConfigTypeDef sMasterConfig = {0};
 437:Core/Src/main.c ****   TIM_OC_InitTypeDef sConfigOC = {0};
 438:Core/Src/main.c **** 
 439:Core/Src/main.c ****   /* USER CODE BEGIN TIM3_Init 1 */
 440:Core/Src/main.c **** 
 441:Core/Src/main.c ****   /* USER CODE END TIM3_Init 1 */
 442:Core/Src/main.c ****   htim3.Instance = TIM3;
 443:Core/Src/main.c ****   htim3.Init.Prescaler = 90-1;
 444:Core/Src/main.c ****   htim3.Init.CounterMode = TIM_COUNTERMODE_UP;
 445:Core/Src/main.c ****   htim3.Init.Period = 20000-1;
 446:Core/Src/main.c ****   htim3.Init.ClockDivision = TIM_CLOCKDIVISION_DIV1;
 447:Core/Src/main.c ****   htim3.Init.AutoReloadPreload = TIM_AUTORELOAD_PRELOAD_DISABLE;
 448:Core/Src/main.c ****   if (HAL_TIM_Base_Init(&htim3) != HAL_OK)
 449:Core/Src/main.c ****   {
 450:Core/Src/main.c ****     Error_Handler();
 451:Core/Src/main.c ****   }
 452:Core/Src/main.c ****   sClockSourceConfig.ClockSource = TIM_CLOCKSOURCE_INTERNAL;
 453:Core/Src/main.c ****   if (HAL_TIM_ConfigClockSource(&htim3, &sClockSourceConfig) != HAL_OK)
 454:Core/Src/main.c ****   {
 455:Core/Src/main.c ****     Error_Handler();
 456:Core/Src/main.c ****   }
 457:Core/Src/main.c ****   if (HAL_TIM_PWM_Init(&htim3) != HAL_OK)
 458:Core/Src/main.c ****   {
 459:Core/Src/main.c ****     Error_Handler();
 460:Core/Src/main.c ****   }
 461:Core/Src/main.c ****   sMasterConfig.MasterOutputTrigger = TIM_TRGO_RESET;
 462:Core/Src/main.c ****   sMasterConfig.MasterSlaveMode = TIM_MASTERSLAVEMODE_DISABLE;
 463:Core/Src/main.c ****   if (HAL_TIMEx_MasterConfigSynchronization(&htim3, &sMasterConfig) != HAL_OK)
 464:Core/Src/main.c ****   {
 465:Core/Src/main.c ****     Error_Handler();
 466:Core/Src/main.c ****   }
 467:Core/Src/main.c ****   sConfigOC.OCMode = TIM_OCMODE_PWM1;
 468:Core/Src/main.c ****   sConfigOC.Pulse = 0;
 469:Core/Src/main.c ****   sConfigOC.OCPolarity = TIM_OCPOLARITY_HIGH;
 470:Core/Src/main.c ****   sConfigOC.OCFastMode = TIM_OCFAST_DISABLE;
 471:Core/Src/main.c ****   if (HAL_TIM_PWM_ConfigChannel(&htim3, &sConfigOC, TIM_CHANNEL_1) != HAL_OK)
 472:Core/Src/main.c ****   {
 473:Core/Src/main.c ****     Error_Handler();
 474:Core/Src/main.c ****   }
 475:Core/Src/main.c ****   if (HAL_TIM_PWM_ConfigChannel(&htim3, &sConfigOC, TIM_CHANNEL_2) != HAL_OK)
 476:Core/Src/main.c ****   {
 477:Core/Src/main.c ****     Error_Handler();
 478:Core/Src/main.c ****   }
 479:Core/Src/main.c ****   /* USER CODE BEGIN TIM3_Init 2 */
 480:Core/Src/main.c **** 
 481:Core/Src/main.c ****   /* USER CODE END TIM3_Init 2 */
 482:Core/Src/main.c ****   HAL_TIM_MspPostInit(&htim3);
 483:Core/Src/main.c **** 
 484:Core/Src/main.c **** }
 485:Core/Src/main.c **** 
 486:Core/Src/main.c **** /**
 487:Core/Src/main.c ****   * @brief USART1 Initialization Function
ARM GAS  C:\Users\pc\AppData\Local\Temp\ccXXeMaj.s 			page 10


 488:Core/Src/main.c ****   * @param None
 489:Core/Src/main.c ****   * @retval None
 490:Core/Src/main.c ****   */
 491:Core/Src/main.c **** static void MX_USART1_UART_Init(void)
 492:Core/Src/main.c **** {
 493:Core/Src/main.c **** 
 494:Core/Src/main.c ****   /* USER CODE BEGIN USART1_Init 0 */
 495:Core/Src/main.c **** 
 496:Core/Src/main.c ****   /* USER CODE END USART1_Init 0 */
 497:Core/Src/main.c **** 
 498:Core/Src/main.c ****   /* USER CODE BEGIN USART1_Init 1 */
 499:Core/Src/main.c **** 
 500:Core/Src/main.c ****   /* USER CODE END USART1_Init 1 */
 501:Core/Src/main.c ****   huart1.Instance = USART1;
 502:Core/Src/main.c ****   huart1.Init.BaudRate = 115200;
 503:Core/Src/main.c ****   huart1.Init.WordLength = UART_WORDLENGTH_8B;
 504:Core/Src/main.c ****   huart1.Init.StopBits = UART_STOPBITS_1;
 505:Core/Src/main.c ****   huart1.Init.Parity = UART_PARITY_NONE;
 506:Core/Src/main.c ****   huart1.Init.Mode = UART_MODE_TX_RX;
 507:Core/Src/main.c ****   huart1.Init.HwFlowCtl = UART_HWCONTROL_NONE;
 508:Core/Src/main.c ****   huart1.Init.OverSampling = UART_OVERSAMPLING_16;
 509:Core/Src/main.c ****   if (HAL_UART_Init(&huart1) != HAL_OK)
 510:Core/Src/main.c ****   {
 511:Core/Src/main.c ****     Error_Handler();
 512:Core/Src/main.c ****   }
 513:Core/Src/main.c ****   /* USER CODE BEGIN USART1_Init 2 */
 514:Core/Src/main.c **** 
 515:Core/Src/main.c ****   /* USER CODE END USART1_Init 2 */
 516:Core/Src/main.c **** 
 517:Core/Src/main.c **** }
 518:Core/Src/main.c **** 
 519:Core/Src/main.c **** /**
 520:Core/Src/main.c ****   * @brief USART2 Initialization Function
 521:Core/Src/main.c ****   * @param None
 522:Core/Src/main.c ****   * @retval None
 523:Core/Src/main.c ****   */
 524:Core/Src/main.c **** static void MX_USART2_UART_Init(void)
 525:Core/Src/main.c **** {
 526:Core/Src/main.c **** 
 527:Core/Src/main.c ****   /* USER CODE BEGIN USART2_Init 0 */
 528:Core/Src/main.c **** 
 529:Core/Src/main.c ****   /* USER CODE END USART2_Init 0 */
 530:Core/Src/main.c **** 
 531:Core/Src/main.c ****   /* USER CODE BEGIN USART2_Init 1 */
 532:Core/Src/main.c **** 
 533:Core/Src/main.c ****   /* USER CODE END USART2_Init 1 */
 534:Core/Src/main.c ****   huart2.Instance = USART2;
 535:Core/Src/main.c ****   huart2.Init.BaudRate = 115200;
 536:Core/Src/main.c ****   huart2.Init.WordLength = UART_WORDLENGTH_8B;
 537:Core/Src/main.c ****   huart2.Init.StopBits = UART_STOPBITS_1;
 538:Core/Src/main.c ****   huart2.Init.Parity = UART_PARITY_NONE;
 539:Core/Src/main.c ****   huart2.Init.Mode = UART_MODE_TX_RX;
 540:Core/Src/main.c ****   huart2.Init.HwFlowCtl = UART_HWCONTROL_NONE;
 541:Core/Src/main.c ****   huart2.Init.OverSampling = UART_OVERSAMPLING_16;
 542:Core/Src/main.c ****   if (HAL_UART_Init(&huart2) != HAL_OK)
 543:Core/Src/main.c ****   {
 544:Core/Src/main.c ****     Error_Handler();
ARM GAS  C:\Users\pc\AppData\Local\Temp\ccXXeMaj.s 			page 11


 545:Core/Src/main.c ****   }
 546:Core/Src/main.c ****   /* USER CODE BEGIN USART2_Init 2 */
 547:Core/Src/main.c **** 
 548:Core/Src/main.c ****   /* USER CODE END USART2_Init 2 */
 549:Core/Src/main.c **** 
 550:Core/Src/main.c **** }
 551:Core/Src/main.c **** 
 552:Core/Src/main.c **** /**
 553:Core/Src/main.c ****   * Enable DMA controller clock
 554:Core/Src/main.c ****   */
 555:Core/Src/main.c **** static void MX_DMA_Init(void)
 556:Core/Src/main.c **** {
 557:Core/Src/main.c **** 
 558:Core/Src/main.c ****   /* DMA controller clock enable */
 559:Core/Src/main.c ****   __HAL_RCC_DMA1_CLK_ENABLE();
 560:Core/Src/main.c **** 
 561:Core/Src/main.c ****   /* DMA interrupt init */
 562:Core/Src/main.c ****   /* DMA1_Stream1_IRQn interrupt configuration */
 563:Core/Src/main.c ****   HAL_NVIC_SetPriority(DMA1_Stream1_IRQn, 0, 0);
 564:Core/Src/main.c ****   HAL_NVIC_EnableIRQ(DMA1_Stream1_IRQn);
 565:Core/Src/main.c ****   /* DMA1_Stream4_IRQn interrupt configuration */
 566:Core/Src/main.c ****   HAL_NVIC_SetPriority(DMA1_Stream4_IRQn, 0, 0);
 567:Core/Src/main.c ****   HAL_NVIC_EnableIRQ(DMA1_Stream4_IRQn);
 568:Core/Src/main.c ****   /* DMA1_Stream5_IRQn interrupt configuration */
 569:Core/Src/main.c ****   HAL_NVIC_SetPriority(DMA1_Stream5_IRQn, 0, 0);
 570:Core/Src/main.c ****   HAL_NVIC_EnableIRQ(DMA1_Stream5_IRQn);
 571:Core/Src/main.c ****   /* DMA1_Stream6_IRQn interrupt configuration */
 572:Core/Src/main.c ****   HAL_NVIC_SetPriority(DMA1_Stream6_IRQn, 0, 0);
 573:Core/Src/main.c ****   HAL_NVIC_EnableIRQ(DMA1_Stream6_IRQn);
 574:Core/Src/main.c **** 
 575:Core/Src/main.c **** }
 576:Core/Src/main.c **** 
 577:Core/Src/main.c **** /**
 578:Core/Src/main.c ****   * @brief GPIO Initialization Function
 579:Core/Src/main.c ****   * @param None
 580:Core/Src/main.c ****   * @retval None
 581:Core/Src/main.c ****   */
 582:Core/Src/main.c **** static void MX_GPIO_Init(void)
 583:Core/Src/main.c **** {
  28              		.loc 1 583 1 view -0
  29              		.cfi_startproc
  30              		@ args = 0, pretend = 0, frame = 16
  31              		@ frame_needed = 0, uses_anonymous_args = 0
  32              		@ link register save eliminated.
  33 0000 84B0     		sub	sp, sp, #16
  34              	.LCFI0:
  35              		.cfi_def_cfa_offset 16
 584:Core/Src/main.c **** /* USER CODE BEGIN MX_GPIO_Init_1 */
 585:Core/Src/main.c **** /* USER CODE END MX_GPIO_Init_1 */
 586:Core/Src/main.c **** 
 587:Core/Src/main.c ****   /* GPIO Ports Clock Enable */
 588:Core/Src/main.c ****   __HAL_RCC_GPIOC_CLK_ENABLE();
  36              		.loc 1 588 3 view .LVU1
  37              	.LBB4:
  38              		.loc 1 588 3 view .LVU2
  39 0002 0022     		movs	r2, #0
  40 0004 0092     		str	r2, [sp]
ARM GAS  C:\Users\pc\AppData\Local\Temp\ccXXeMaj.s 			page 12


  41              		.loc 1 588 3 view .LVU3
  42 0006 154B     		ldr	r3, .L3
  43 0008 196B     		ldr	r1, [r3, #48]
  44 000a 41F00401 		orr	r1, r1, #4
  45 000e 1963     		str	r1, [r3, #48]
  46              		.loc 1 588 3 view .LVU4
  47 0010 196B     		ldr	r1, [r3, #48]
  48 0012 01F00401 		and	r1, r1, #4
  49 0016 0091     		str	r1, [sp]
  50              		.loc 1 588 3 view .LVU5
  51 0018 0099     		ldr	r1, [sp]
  52              	.LBE4:
  53              		.loc 1 588 3 view .LVU6
 589:Core/Src/main.c ****   __HAL_RCC_GPIOH_CLK_ENABLE();
  54              		.loc 1 589 3 view .LVU7
  55              	.LBB5:
  56              		.loc 1 589 3 view .LVU8
  57 001a 0192     		str	r2, [sp, #4]
  58              		.loc 1 589 3 view .LVU9
  59 001c 196B     		ldr	r1, [r3, #48]
  60 001e 41F08001 		orr	r1, r1, #128
  61 0022 1963     		str	r1, [r3, #48]
  62              		.loc 1 589 3 view .LVU10
  63 0024 196B     		ldr	r1, [r3, #48]
  64 0026 01F08001 		and	r1, r1, #128
  65 002a 0191     		str	r1, [sp, #4]
  66              		.loc 1 589 3 view .LVU11
  67 002c 0199     		ldr	r1, [sp, #4]
  68              	.LBE5:
  69              		.loc 1 589 3 view .LVU12
 590:Core/Src/main.c ****   __HAL_RCC_GPIOA_CLK_ENABLE();
  70              		.loc 1 590 3 view .LVU13
  71              	.LBB6:
  72              		.loc 1 590 3 view .LVU14
  73 002e 0292     		str	r2, [sp, #8]
  74              		.loc 1 590 3 view .LVU15
  75 0030 196B     		ldr	r1, [r3, #48]
  76 0032 41F00101 		orr	r1, r1, #1
  77 0036 1963     		str	r1, [r3, #48]
  78              		.loc 1 590 3 view .LVU16
  79 0038 196B     		ldr	r1, [r3, #48]
  80 003a 01F00101 		and	r1, r1, #1
  81 003e 0291     		str	r1, [sp, #8]
  82              		.loc 1 590 3 view .LVU17
  83 0040 0299     		ldr	r1, [sp, #8]
  84              	.LBE6:
  85              		.loc 1 590 3 view .LVU18
 591:Core/Src/main.c ****   __HAL_RCC_GPIOB_CLK_ENABLE();
  86              		.loc 1 591 3 view .LVU19
  87              	.LBB7:
  88              		.loc 1 591 3 view .LVU20
  89 0042 0392     		str	r2, [sp, #12]
  90              		.loc 1 591 3 view .LVU21
  91 0044 1A6B     		ldr	r2, [r3, #48]
  92 0046 42F00202 		orr	r2, r2, #2
  93 004a 1A63     		str	r2, [r3, #48]
  94              		.loc 1 591 3 view .LVU22
ARM GAS  C:\Users\pc\AppData\Local\Temp\ccXXeMaj.s 			page 13


  95 004c 1B6B     		ldr	r3, [r3, #48]
  96 004e 03F00203 		and	r3, r3, #2
  97 0052 0393     		str	r3, [sp, #12]
  98              		.loc 1 591 3 view .LVU23
  99 0054 039B     		ldr	r3, [sp, #12]
 100              	.LBE7:
 101              		.loc 1 591 3 view .LVU24
 592:Core/Src/main.c **** 
 593:Core/Src/main.c **** /* USER CODE BEGIN MX_GPIO_Init_2 */
 594:Core/Src/main.c **** /* USER CODE END MX_GPIO_Init_2 */
 595:Core/Src/main.c **** }
 102              		.loc 1 595 1 is_stmt 0 view .LVU25
 103 0056 04B0     		add	sp, sp, #16
 104              	.LCFI1:
 105              		.cfi_def_cfa_offset 0
 106              		@ sp needed
 107 0058 7047     		bx	lr
 108              	.L4:
 109 005a 00BF     		.align	2
 110              	.L3:
 111 005c 00380240 		.word	1073887232
 112              		.cfi_endproc
 113              	.LFE140:
 115              		.section	.text.MX_DMA_Init,"ax",%progbits
 116              		.align	1
 117              		.syntax unified
 118              		.thumb
 119              		.thumb_func
 121              	MX_DMA_Init:
 122              	.LFB139:
 556:Core/Src/main.c **** 
 123              		.loc 1 556 1 is_stmt 1 view -0
 124              		.cfi_startproc
 125              		@ args = 0, pretend = 0, frame = 8
 126              		@ frame_needed = 0, uses_anonymous_args = 0
 127 0000 10B5     		push	{r4, lr}
 128              	.LCFI2:
 129              		.cfi_def_cfa_offset 8
 130              		.cfi_offset 4, -8
 131              		.cfi_offset 14, -4
 132 0002 82B0     		sub	sp, sp, #8
 133              	.LCFI3:
 134              		.cfi_def_cfa_offset 16
 559:Core/Src/main.c **** 
 135              		.loc 1 559 3 view .LVU27
 136              	.LBB8:
 559:Core/Src/main.c **** 
 137              		.loc 1 559 3 view .LVU28
 138 0004 0024     		movs	r4, #0
 139 0006 0194     		str	r4, [sp, #4]
 559:Core/Src/main.c **** 
 140              		.loc 1 559 3 view .LVU29
 141 0008 154B     		ldr	r3, .L7
 142 000a 1A6B     		ldr	r2, [r3, #48]
 143 000c 42F40012 		orr	r2, r2, #2097152
 144 0010 1A63     		str	r2, [r3, #48]
 559:Core/Src/main.c **** 
ARM GAS  C:\Users\pc\AppData\Local\Temp\ccXXeMaj.s 			page 14


 145              		.loc 1 559 3 view .LVU30
 146 0012 1B6B     		ldr	r3, [r3, #48]
 147 0014 03F40013 		and	r3, r3, #2097152
 148 0018 0193     		str	r3, [sp, #4]
 559:Core/Src/main.c **** 
 149              		.loc 1 559 3 view .LVU31
 150 001a 019B     		ldr	r3, [sp, #4]
 151              	.LBE8:
 559:Core/Src/main.c **** 
 152              		.loc 1 559 3 view .LVU32
 563:Core/Src/main.c ****   HAL_NVIC_EnableIRQ(DMA1_Stream1_IRQn);
 153              		.loc 1 563 3 view .LVU33
 154 001c 2246     		mov	r2, r4
 155 001e 2146     		mov	r1, r4
 156 0020 0C20     		movs	r0, #12
 157 0022 FFF7FEFF 		bl	HAL_NVIC_SetPriority
 158              	.LVL0:
 564:Core/Src/main.c ****   /* DMA1_Stream4_IRQn interrupt configuration */
 159              		.loc 1 564 3 view .LVU34
 160 0026 0C20     		movs	r0, #12
 161 0028 FFF7FEFF 		bl	HAL_NVIC_EnableIRQ
 162              	.LVL1:
 566:Core/Src/main.c ****   HAL_NVIC_EnableIRQ(DMA1_Stream4_IRQn);
 163              		.loc 1 566 3 view .LVU35
 164 002c 2246     		mov	r2, r4
 165 002e 2146     		mov	r1, r4
 166 0030 0F20     		movs	r0, #15
 167 0032 FFF7FEFF 		bl	HAL_NVIC_SetPriority
 168              	.LVL2:
 567:Core/Src/main.c ****   /* DMA1_Stream5_IRQn interrupt configuration */
 169              		.loc 1 567 3 view .LVU36
 170 0036 0F20     		movs	r0, #15
 171 0038 FFF7FEFF 		bl	HAL_NVIC_EnableIRQ
 172              	.LVL3:
 569:Core/Src/main.c ****   HAL_NVIC_EnableIRQ(DMA1_Stream5_IRQn);
 173              		.loc 1 569 3 view .LVU37
 174 003c 2246     		mov	r2, r4
 175 003e 2146     		mov	r1, r4
 176 0040 1020     		movs	r0, #16
 177 0042 FFF7FEFF 		bl	HAL_NVIC_SetPriority
 178              	.LVL4:
 570:Core/Src/main.c ****   /* DMA1_Stream6_IRQn interrupt configuration */
 179              		.loc 1 570 3 view .LVU38
 180 0046 1020     		movs	r0, #16
 181 0048 FFF7FEFF 		bl	HAL_NVIC_EnableIRQ
 182              	.LVL5:
 572:Core/Src/main.c ****   HAL_NVIC_EnableIRQ(DMA1_Stream6_IRQn);
 183              		.loc 1 572 3 view .LVU39
 184 004c 2246     		mov	r2, r4
 185 004e 2146     		mov	r1, r4
 186 0050 1120     		movs	r0, #17
 187 0052 FFF7FEFF 		bl	HAL_NVIC_SetPriority
 188              	.LVL6:
 573:Core/Src/main.c **** 
 189              		.loc 1 573 3 view .LVU40
 190 0056 1120     		movs	r0, #17
 191 0058 FFF7FEFF 		bl	HAL_NVIC_EnableIRQ
ARM GAS  C:\Users\pc\AppData\Local\Temp\ccXXeMaj.s 			page 15


 192              	.LVL7:
 575:Core/Src/main.c **** 
 193              		.loc 1 575 1 is_stmt 0 view .LVU41
 194 005c 02B0     		add	sp, sp, #8
 195              	.LCFI4:
 196              		.cfi_def_cfa_offset 8
 197              		@ sp needed
 198 005e 10BD     		pop	{r4, pc}
 199              	.L8:
 200              		.align	2
 201              	.L7:
 202 0060 00380240 		.word	1073887232
 203              		.cfi_endproc
 204              	.LFE139:
 206              		.global	__aeabi_dsub
 207              		.global	__aeabi_d2iz
 208              		.global	__aeabi_f2d
 209              		.section	.text.PID_Control,"ax",%progbits
 210              		.align	1
 211              		.global	PID_Control
 212              		.syntax unified
 213              		.thumb
 214              		.thumb_func
 216              	PID_Control:
 217              	.LVL8:
 218              	.LFB130:
 132:Core/Src/main.c ****   /* PID calculation */
 219              		.loc 1 132 1 is_stmt 1 view -0
 220              		.cfi_startproc
 221              		@ args = 0, pretend = 0, frame = 8
 222              		@ frame_needed = 0, uses_anonymous_args = 0
 132:Core/Src/main.c ****   /* PID calculation */
 223              		.loc 1 132 1 is_stmt 0 view .LVU43
 224 0000 00B5     		push	{lr}
 225              	.LCFI5:
 226              		.cfi_def_cfa_offset 4
 227              		.cfi_offset 14, -4
 228 0002 2DED028B 		vpush.64	{d8}
 229              	.LCFI6:
 230              		.cfi_def_cfa_offset 12
 231              		.cfi_offset 80, -12
 232              		.cfi_offset 81, -8
 233 0006 83B0     		sub	sp, sp, #12
 234              	.LCFI7:
 235              		.cfi_def_cfa_offset 24
 236 0008 51EC100B 		vmov	r0, r1, d0
 237 000c 53EC112B 		vmov	r2, r3, d1
 238 0010 B0EE428A 		vmov.f32	s16, s4
 134:Core/Src/main.c ****   motor.P =  motor.Error;
 239              		.loc 1 134 3 is_stmt 1 view .LVU44
 134:Core/Src/main.c ****   motor.P =  motor.Error;
 240              		.loc 1 134 31 is_stmt 0 view .LVU45
 241 0014 FFF7FEFF 		bl	__aeabi_dsub
 242              	.LVL9:
 134:Core/Src/main.c ****   motor.P =  motor.Error;
 243              		.loc 1 134 15 view .LVU46
 244 0018 FFF7FEFF 		bl	__aeabi_d2iz
ARM GAS  C:\Users\pc\AppData\Local\Temp\ccXXeMaj.s 			page 16


 245              	.LVL10:
 246 001c 40B2     		sxtb	r0, r0
 247 001e 264B     		ldr	r3, .L11
 248 0020 1870     		strb	r0, [r3]
 135:Core/Src/main.c ****   motor.I += (motor.Error*dt);
 249              		.loc 1 135 3 is_stmt 1 view .LVU47
 135:Core/Src/main.c ****   motor.I += (motor.Error*dt);
 250              		.loc 1 135 11 is_stmt 0 view .LVU48
 251 0022 9870     		strb	r0, [r3, #2]
 136:Core/Src/main.c ****   /* prevent I term saturation*/
 252              		.loc 1 136 3 is_stmt 1 view .LVU49
 136:Core/Src/main.c ****   /* prevent I term saturation*/
 253              		.loc 1 136 8 is_stmt 0 view .LVU50
 254 0024 93F90320 		ldrsb	r2, [r3, #3]
 255 0028 07EE102A 		vmov	s14, r2	@ int
 136:Core/Src/main.c ****   /* prevent I term saturation*/
 256              		.loc 1 136 26 view .LVU51
 257 002c 07EE900A 		vmov	s15, r0	@ int
 258 0030 F8EEE77A 		vcvt.f32.s32	s15, s15
 259 0034 67EE886A 		vmul.f32	s13, s15, s16
 136:Core/Src/main.c ****   /* prevent I term saturation*/
 260              		.loc 1 136 11 view .LVU52
 261 0038 B8EEC77A 		vcvt.f32.s32	s14, s14
 262 003c 37EE267A 		vadd.f32	s14, s14, s13
 263 0040 BDEEC77A 		vcvt.s32.f32	s14, s14
 264 0044 8DED017A 		vstr.32	s14, [sp, #4]	@ int
 265 0048 9DF90410 		ldrsb	r1, [sp, #4]
 266 004c D970     		strb	r1, [r3, #3]
 138:Core/Src/main.c ****   else if(motor.I < -400) motor.I = -400;
 267              		.loc 1 138 3 is_stmt 1 view .LVU53
 139:Core/Src/main.c ****   motor.D = ((motor.PreviousError - motor.Error)/dt);
 268              		.loc 1 139 8 view .LVU54
 140:Core/Src/main.c ****   motor.PID = motor.Kp*motor.P + motor.Ki*motor.I + motor.Kd*motor.D;
 269              		.loc 1 140 3 view .LVU55
 140:Core/Src/main.c ****   motor.PID = motor.Kp*motor.P + motor.Ki*motor.I + motor.Kd*motor.D;
 270              		.loc 1 140 20 is_stmt 0 view .LVU56
 271 004e 93F90120 		ldrsb	r2, [r3, #1]
 140:Core/Src/main.c ****   motor.PID = motor.Kp*motor.P + motor.Ki*motor.I + motor.Kd*motor.D;
 272              		.loc 1 140 35 view .LVU57
 273 0052 121A     		subs	r2, r2, r0
 140:Core/Src/main.c ****   motor.PID = motor.Kp*motor.P + motor.Ki*motor.I + motor.Kd*motor.D;
 274              		.loc 1 140 49 view .LVU58
 275 0054 07EE102A 		vmov	s14, r2	@ int
 276 0058 B8EEC77A 		vcvt.f32.s32	s14, s14
 277 005c C7EE086A 		vdiv.f32	s13, s14, s16
 140:Core/Src/main.c ****   motor.PID = motor.Kp*motor.P + motor.Ki*motor.I + motor.Kd*motor.D;
 278              		.loc 1 140 11 view .LVU59
 279 0060 BDEEE67A 		vcvt.s32.f32	s14, s13
 280 0064 8DED017A 		vstr.32	s14, [sp, #4]	@ int
 281 0068 9DF90420 		ldrsb	r2, [sp, #4]
 282 006c 1A71     		strb	r2, [r3, #4]
 141:Core/Src/main.c **** 
 283              		.loc 1 141 3 is_stmt 1 view .LVU60
 141:Core/Src/main.c **** 
 284              		.loc 1 141 20 is_stmt 0 view .LVU61
 285 006e 93ED027A 		vldr.32	s14, [r3, #8]
 141:Core/Src/main.c **** 
ARM GAS  C:\Users\pc\AppData\Local\Temp\ccXXeMaj.s 			page 17


 286              		.loc 1 141 23 view .LVU62
 287 0072 67EE877A 		vmul.f32	s15, s15, s14
 141:Core/Src/main.c **** 
 288              		.loc 1 141 39 view .LVU63
 289 0076 D3ED036A 		vldr.32	s13, [r3, #12]
 141:Core/Src/main.c **** 
 290              		.loc 1 141 42 view .LVU64
 291 007a 07EE101A 		vmov	s14, r1	@ int
 292 007e B8EEC77A 		vcvt.f32.s32	s14, s14
 293 0082 27EE267A 		vmul.f32	s14, s14, s13
 141:Core/Src/main.c **** 
 294              		.loc 1 141 32 view .LVU65
 295 0086 77EE877A 		vadd.f32	s15, s15, s14
 141:Core/Src/main.c **** 
 296              		.loc 1 141 58 view .LVU66
 297 008a D3ED046A 		vldr.32	s13, [r3, #16]
 141:Core/Src/main.c **** 
 298              		.loc 1 141 61 view .LVU67
 299 008e 07EE102A 		vmov	s14, r2	@ int
 300 0092 B8EEC77A 		vcvt.f32.s32	s14, s14
 301 0096 27EE267A 		vmul.f32	s14, s14, s13
 141:Core/Src/main.c **** 
 302              		.loc 1 141 51 view .LVU68
 303 009a 77EE877A 		vadd.f32	s15, s15, s14
 141:Core/Src/main.c **** 
 304              		.loc 1 141 13 view .LVU69
 305 009e C3ED057A 		vstr.32	s15, [r3, #20]
 143:Core/Src/main.c **** }
 306              		.loc 1 143 3 is_stmt 1 view .LVU70
 143:Core/Src/main.c **** }
 307              		.loc 1 143 15 is_stmt 0 view .LVU71
 308 00a2 17EE900A 		vmov	r0, s15
 309 00a6 FFF7FEFF 		bl	__aeabi_f2d
 310              	.LVL11:
 144:Core/Src/main.c **** 
 311              		.loc 1 144 1 view .LVU72
 312 00aa 41EC100B 		vmov	d0, r0, r1
 313 00ae 03B0     		add	sp, sp, #12
 314              	.LCFI8:
 315              		.cfi_def_cfa_offset 12
 316              		@ sp needed
 317 00b0 BDEC028B 		vldm	sp!, {d8}
 318              	.LCFI9:
 319              		.cfi_restore 80
 320              		.cfi_restore 81
 321              		.cfi_def_cfa_offset 4
 322              	.LVL12:
 144:Core/Src/main.c **** 
 323              		.loc 1 144 1 view .LVU73
 324 00b4 5DF804FB 		ldr	pc, [sp], #4
 325              	.L12:
 326              		.align	2
 327              	.L11:
 328 00b8 00000000 		.word	motor
 329              		.cfi_endproc
 330              	.LFE130:
 332              		.global	__aeabi_i2d
ARM GAS  C:\Users\pc\AppData\Local\Temp\ccXXeMaj.s 			page 18


 333              		.global	__aeabi_dadd
 334              		.global	__aeabi_d2uiz
 335              		.section	.text.motorControl,"ax",%progbits
 336              		.align	1
 337              		.global	motorControl
 338              		.syntax unified
 339              		.thumb
 340              		.thumb_func
 342              	motorControl:
 343              	.LVL13:
 344              	.LFB131:
 147:Core/Src/main.c ****   motor.M1 = 1100 + Throttle - Roll - Pitch + Yaw; // CCW - Front left   - D3 
 345              		.loc 1 147 1 is_stmt 1 view -0
 346              		.cfi_startproc
 347              		@ args = 0, pretend = 0, frame = 8
 348              		@ frame_needed = 0, uses_anonymous_args = 0
 147:Core/Src/main.c ****   motor.M1 = 1100 + Throttle - Roll - Pitch + Yaw; // CCW - Front left   - D3 
 349              		.loc 1 147 1 is_stmt 0 view .LVU75
 350 0000 2DE9F04F 		push	{r4, r5, r6, r7, r8, r9, r10, fp, lr}
 351              	.LCFI10:
 352              		.cfi_def_cfa_offset 36
 353              		.cfi_offset 4, -36
 354              		.cfi_offset 5, -32
 355              		.cfi_offset 6, -28
 356              		.cfi_offset 7, -24
 357              		.cfi_offset 8, -20
 358              		.cfi_offset 9, -16
 359              		.cfi_offset 10, -12
 360              		.cfi_offset 11, -8
 361              		.cfi_offset 14, -4
 362 0004 83B0     		sub	sp, sp, #12
 363              	.LCFI11:
 364              		.cfi_def_cfa_offset 48
 365 0006 59EC108B 		vmov	r8, r9, d0
 366 000a 57EC116B 		vmov	r6, r7, d1
 367 000e 55EC124B 		vmov	r4, r5, d2
 148:Core/Src/main.c ****   motor.M2 = 1100 + Throttle + Roll - Pitch - Yaw; // CW  - Back right   - D6 
 368              		.loc 1 148 3 is_stmt 1 view .LVU76
 148:Core/Src/main.c ****   motor.M2 = 1100 + Throttle + Roll - Pitch - Yaw; // CW  - Back right   - D6 
 369              		.loc 1 148 30 is_stmt 0 view .LVU77
 370 0012 00F24C40 		addw	r0, r0, #1100
 371              	.LVL14:
 148:Core/Src/main.c ****   motor.M2 = 1100 + Throttle + Roll - Pitch - Yaw; // CW  - Back right   - D6 
 372              		.loc 1 148 30 view .LVU78
 373 0016 FFF7FEFF 		bl	__aeabi_i2d
 374              	.LVL15:
 148:Core/Src/main.c ****   motor.M2 = 1100 + Throttle + Roll - Pitch - Yaw; // CW  - Back right   - D6 
 375              		.loc 1 148 30 view .LVU79
 376 001a 0246     		mov	r2, r0
 377 001c 0B46     		mov	r3, r1
 378 001e CDE90023 		strd	r2, [sp]
 379 0022 4246     		mov	r2, r8
 380 0024 4B46     		mov	r3, r9
 381 0026 FFF7FEFF 		bl	__aeabi_dsub
 382              	.LVL16:
 148:Core/Src/main.c ****   motor.M2 = 1100 + Throttle + Roll - Pitch - Yaw; // CW  - Back right   - D6 
 383              		.loc 1 148 37 view .LVU80
ARM GAS  C:\Users\pc\AppData\Local\Temp\ccXXeMaj.s 			page 19


 384 002a 3246     		mov	r2, r6
 385 002c 3B46     		mov	r3, r7
 386 002e FFF7FEFF 		bl	__aeabi_dsub
 387              	.LVL17:
 148:Core/Src/main.c ****   motor.M2 = 1100 + Throttle + Roll - Pitch - Yaw; // CW  - Back right   - D6 
 388              		.loc 1 148 45 view .LVU81
 389 0032 2246     		mov	r2, r4
 390 0034 2B46     		mov	r3, r5
 391 0036 FFF7FEFF 		bl	__aeabi_dadd
 392              	.LVL18:
 148:Core/Src/main.c ****   motor.M2 = 1100 + Throttle + Roll - Pitch - Yaw; // CW  - Back right   - D6 
 393              		.loc 1 148 12 view .LVU82
 394 003a FFF7FEFF 		bl	__aeabi_d2uiz
 395              	.LVL19:
 396 003e 1FFA80FA 		uxth	r10, r0
 397 0042 DFF82CB1 		ldr	fp, .L23
 398 0046 ABF81CA0 		strh	r10, [fp, #28]	@ movhi
 149:Core/Src/main.c ****   motor.M3 = 1100 + Throttle + Roll + Pitch + Yaw; // CCW - Front right  - D5 
 399              		.loc 1 149 3 is_stmt 1 view .LVU83
 149:Core/Src/main.c ****   motor.M3 = 1100 + Throttle + Roll + Pitch + Yaw; // CCW - Front right  - D5 
 400              		.loc 1 149 30 is_stmt 0 view .LVU84
 401 004a 4246     		mov	r2, r8
 402 004c 4B46     		mov	r3, r9
 403 004e DDE90001 		ldrd	r0, [sp]
 404 0052 FFF7FEFF 		bl	__aeabi_dadd
 405              	.LVL20:
 406 0056 0246     		mov	r2, r0
 407 0058 0B46     		mov	r3, r1
 408 005a CDE90023 		strd	r2, [sp]
 149:Core/Src/main.c ****   motor.M3 = 1100 + Throttle + Roll + Pitch + Yaw; // CCW - Front right  - D5 
 409              		.loc 1 149 37 view .LVU85
 410 005e 3246     		mov	r2, r6
 411 0060 3B46     		mov	r3, r7
 412 0062 FFF7FEFF 		bl	__aeabi_dsub
 413              	.LVL21:
 149:Core/Src/main.c ****   motor.M3 = 1100 + Throttle + Roll + Pitch + Yaw; // CCW - Front right  - D5 
 414              		.loc 1 149 45 view .LVU86
 415 0066 2246     		mov	r2, r4
 416 0068 2B46     		mov	r3, r5
 417 006a FFF7FEFF 		bl	__aeabi_dsub
 418              	.LVL22:
 149:Core/Src/main.c ****   motor.M3 = 1100 + Throttle + Roll + Pitch + Yaw; // CCW - Front right  - D5 
 419              		.loc 1 149 12 view .LVU87
 420 006e FFF7FEFF 		bl	__aeabi_d2uiz
 421              	.LVL23:
 422 0072 1FFA80F8 		uxth	r8, r0
 423              	.LVL24:
 149:Core/Src/main.c ****   motor.M3 = 1100 + Throttle + Roll + Pitch + Yaw; // CCW - Front right  - D5 
 424              		.loc 1 149 12 view .LVU88
 425 0076 ABF81E80 		strh	r8, [fp, #30]	@ movhi
 150:Core/Src/main.c ****   motor.M4 = 1100 + Throttle + Roll - Pitch - Yaw; // CW  - Back left    - D4  
 426              		.loc 1 150 3 is_stmt 1 view .LVU89
 150:Core/Src/main.c ****   motor.M4 = 1100 + Throttle + Roll - Pitch - Yaw; // CW  - Back left    - D4  
 427              		.loc 1 150 37 is_stmt 0 view .LVU90
 428 007a 3246     		mov	r2, r6
 429 007c 3B46     		mov	r3, r7
 430 007e DDE90001 		ldrd	r0, [sp]
ARM GAS  C:\Users\pc\AppData\Local\Temp\ccXXeMaj.s 			page 20


 431 0082 FFF7FEFF 		bl	__aeabi_dadd
 432              	.LVL25:
 150:Core/Src/main.c ****   motor.M4 = 1100 + Throttle + Roll - Pitch - Yaw; // CW  - Back left    - D4  
 433              		.loc 1 150 45 view .LVU91
 434 0086 2246     		mov	r2, r4
 435 0088 2B46     		mov	r3, r5
 436 008a FFF7FEFF 		bl	__aeabi_dadd
 437              	.LVL26:
 150:Core/Src/main.c ****   motor.M4 = 1100 + Throttle + Roll - Pitch - Yaw; // CW  - Back left    - D4  
 438              		.loc 1 150 12 view .LVU92
 439 008e FFF7FEFF 		bl	__aeabi_d2uiz
 440              	.LVL27:
 441 0092 80B2     		uxth	r0, r0
 442 0094 ABF82000 		strh	r0, [fp, #32]	@ movhi
 151:Core/Src/main.c ****  
 443              		.loc 1 151 3 is_stmt 1 view .LVU93
 151:Core/Src/main.c ****  
 444              		.loc 1 151 12 is_stmt 0 view .LVU94
 445 0098 ABF82280 		strh	r8, [fp, #34]	@ movhi
 153:Core/Src/main.c ****   if (motor.M2 > 1500) motor.M2 = 1500;
 446              		.loc 1 153 3 is_stmt 1 view .LVU95
 153:Core/Src/main.c ****   if (motor.M2 > 1500) motor.M2 = 1500;
 447              		.loc 1 153 6 is_stmt 0 view .LVU96
 448 009c 40F2DC53 		movw	r3, #1500
 449 00a0 9A45     		cmp	r10, r3
 450 00a2 03D9     		bls	.L14
 153:Core/Src/main.c ****   if (motor.M2 > 1500) motor.M2 = 1500;
 451              		.loc 1 153 24 is_stmt 1 discriminator 1 view .LVU97
 153:Core/Src/main.c ****   if (motor.M2 > 1500) motor.M2 = 1500;
 452              		.loc 1 153 33 is_stmt 0 discriminator 1 view .LVU98
 453 00a4 40F2DC52 		movw	r2, #1500
 454 00a8 ABF81C20 		strh	r2, [fp, #28]	@ movhi
 455              	.L14:
 154:Core/Src/main.c ****   if (motor.M3 > 1500) motor.M3 = 1500;
 456              		.loc 1 154 3 is_stmt 1 view .LVU99
 154:Core/Src/main.c ****   if (motor.M3 > 1500) motor.M3 = 1500;
 457              		.loc 1 154 6 is_stmt 0 view .LVU100
 458 00ac 40F2DC53 		movw	r3, #1500
 459 00b0 9845     		cmp	r8, r3
 460 00b2 03D9     		bls	.L15
 154:Core/Src/main.c ****   if (motor.M3 > 1500) motor.M3 = 1500;
 461              		.loc 1 154 24 is_stmt 1 discriminator 1 view .LVU101
 154:Core/Src/main.c ****   if (motor.M3 > 1500) motor.M3 = 1500;
 462              		.loc 1 154 33 is_stmt 0 discriminator 1 view .LVU102
 463 00b4 2E4B     		ldr	r3, .L23
 464 00b6 40F2DC52 		movw	r2, #1500
 465 00ba DA83     		strh	r2, [r3, #30]	@ movhi
 466              	.L15:
 155:Core/Src/main.c ****   if (motor.M4 > 1500) motor.M4 = 1500;
 467              		.loc 1 155 3 is_stmt 1 view .LVU103
 155:Core/Src/main.c ****   if (motor.M4 > 1500) motor.M4 = 1500;
 468              		.loc 1 155 6 is_stmt 0 view .LVU104
 469 00bc 40F2DC53 		movw	r3, #1500
 470 00c0 9842     		cmp	r0, r3
 471 00c2 03D9     		bls	.L16
 155:Core/Src/main.c ****   if (motor.M4 > 1500) motor.M4 = 1500;
 472              		.loc 1 155 24 is_stmt 1 discriminator 1 view .LVU105
ARM GAS  C:\Users\pc\AppData\Local\Temp\ccXXeMaj.s 			page 21


 155:Core/Src/main.c ****   if (motor.M4 > 1500) motor.M4 = 1500;
 473              		.loc 1 155 33 is_stmt 0 discriminator 1 view .LVU106
 474 00c4 2A4B     		ldr	r3, .L23
 475 00c6 40F2DC52 		movw	r2, #1500
 476 00ca 1A84     		strh	r2, [r3, #32]	@ movhi
 477              	.L16:
 156:Core/Src/main.c **** 
 478              		.loc 1 156 3 is_stmt 1 view .LVU107
 156:Core/Src/main.c **** 
 479              		.loc 1 156 6 is_stmt 0 view .LVU108
 480 00cc 40F2DC53 		movw	r3, #1500
 481 00d0 9845     		cmp	r8, r3
 482 00d2 03D9     		bls	.L17
 156:Core/Src/main.c **** 
 483              		.loc 1 156 24 is_stmt 1 discriminator 1 view .LVU109
 156:Core/Src/main.c **** 
 484              		.loc 1 156 33 is_stmt 0 discriminator 1 view .LVU110
 485 00d4 264B     		ldr	r3, .L23
 486 00d6 40F2DC52 		movw	r2, #1500
 487 00da 5A84     		strh	r2, [r3, #34]	@ movhi
 488              	.L17:
 159:Core/Src/main.c ****   if (motor.M2 < 1150) motor.M2 = 1150;
 489              		.loc 1 159 3 is_stmt 1 view .LVU111
 159:Core/Src/main.c ****   if (motor.M2 < 1150) motor.M2 = 1150;
 490              		.loc 1 159 12 is_stmt 0 view .LVU112
 491 00dc 244B     		ldr	r3, .L23
 492 00de 9A8B     		ldrh	r2, [r3, #28]
 159:Core/Src/main.c ****   if (motor.M2 < 1150) motor.M2 = 1150;
 493              		.loc 1 159 6 view .LVU113
 494 00e0 40F27D43 		movw	r3, #1149
 495 00e4 9A42     		cmp	r2, r3
 496 00e6 03D8     		bhi	.L18
 159:Core/Src/main.c ****   if (motor.M2 < 1150) motor.M2 = 1150;
 497              		.loc 1 159 24 is_stmt 1 discriminator 1 view .LVU114
 159:Core/Src/main.c ****   if (motor.M2 < 1150) motor.M2 = 1150;
 498              		.loc 1 159 33 is_stmt 0 discriminator 1 view .LVU115
 499 00e8 214B     		ldr	r3, .L23
 500 00ea 40F27E42 		movw	r2, #1150
 501 00ee 9A83     		strh	r2, [r3, #28]	@ movhi
 502              	.L18:
 160:Core/Src/main.c ****   if (motor.M3 < 1150) motor.M3 = 1150;
 503              		.loc 1 160 3 is_stmt 1 view .LVU116
 160:Core/Src/main.c ****   if (motor.M3 < 1150) motor.M3 = 1150;
 504              		.loc 1 160 12 is_stmt 0 view .LVU117
 505 00f0 1F4B     		ldr	r3, .L23
 506 00f2 DA8B     		ldrh	r2, [r3, #30]
 160:Core/Src/main.c ****   if (motor.M3 < 1150) motor.M3 = 1150;
 507              		.loc 1 160 6 view .LVU118
 508 00f4 40F27D43 		movw	r3, #1149
 509 00f8 9A42     		cmp	r2, r3
 510 00fa 03D8     		bhi	.L19
 160:Core/Src/main.c ****   if (motor.M3 < 1150) motor.M3 = 1150;
 511              		.loc 1 160 24 is_stmt 1 discriminator 1 view .LVU119
 160:Core/Src/main.c ****   if (motor.M3 < 1150) motor.M3 = 1150;
 512              		.loc 1 160 33 is_stmt 0 discriminator 1 view .LVU120
 513 00fc 1C4B     		ldr	r3, .L23
 514 00fe 40F27E42 		movw	r2, #1150
ARM GAS  C:\Users\pc\AppData\Local\Temp\ccXXeMaj.s 			page 22


 515 0102 DA83     		strh	r2, [r3, #30]	@ movhi
 516              	.L19:
 161:Core/Src/main.c ****   if (motor.M4 < 1150) motor.M4 = 1150;
 517              		.loc 1 161 3 is_stmt 1 view .LVU121
 161:Core/Src/main.c ****   if (motor.M4 < 1150) motor.M4 = 1150;
 518              		.loc 1 161 12 is_stmt 0 view .LVU122
 519 0104 1A4B     		ldr	r3, .L23
 520 0106 1A8C     		ldrh	r2, [r3, #32]
 161:Core/Src/main.c ****   if (motor.M4 < 1150) motor.M4 = 1150;
 521              		.loc 1 161 6 view .LVU123
 522 0108 40F27D43 		movw	r3, #1149
 523 010c 9A42     		cmp	r2, r3
 524 010e 03D8     		bhi	.L20
 161:Core/Src/main.c ****   if (motor.M4 < 1150) motor.M4 = 1150;
 525              		.loc 1 161 24 is_stmt 1 discriminator 1 view .LVU124
 161:Core/Src/main.c ****   if (motor.M4 < 1150) motor.M4 = 1150;
 526              		.loc 1 161 33 is_stmt 0 discriminator 1 view .LVU125
 527 0110 174B     		ldr	r3, .L23
 528 0112 40F27E42 		movw	r2, #1150
 529 0116 1A84     		strh	r2, [r3, #32]	@ movhi
 530              	.L20:
 162:Core/Src/main.c **** 
 531              		.loc 1 162 3 is_stmt 1 view .LVU126
 162:Core/Src/main.c **** 
 532              		.loc 1 162 12 is_stmt 0 view .LVU127
 533 0118 154B     		ldr	r3, .L23
 534 011a 5A8C     		ldrh	r2, [r3, #34]
 162:Core/Src/main.c **** 
 535              		.loc 1 162 6 view .LVU128
 536 011c 40F27D43 		movw	r3, #1149
 537 0120 9A42     		cmp	r2, r3
 538 0122 03D8     		bhi	.L21
 162:Core/Src/main.c **** 
 539              		.loc 1 162 24 is_stmt 1 discriminator 1 view .LVU129
 162:Core/Src/main.c **** 
 540              		.loc 1 162 33 is_stmt 0 discriminator 1 view .LVU130
 541 0124 124B     		ldr	r3, .L23
 542 0126 40F27E42 		movw	r2, #1150
 543 012a 5A84     		strh	r2, [r3, #34]	@ movhi
 544              	.L21:
 164:Core/Src/main.c ****   TIM2->CCR3 = motor.M2; // PB10 - D6
 545              		.loc 1 164 3 is_stmt 1 view .LVU131
 164:Core/Src/main.c ****   TIM2->CCR3 = motor.M2; // PB10 - D6
 546              		.loc 1 164 21 is_stmt 0 view .LVU132
 547 012c 104B     		ldr	r3, .L23
 548 012e 998B     		ldrh	r1, [r3, #28]
 164:Core/Src/main.c ****   TIM2->CCR3 = motor.M2; // PB10 - D6
 549              		.loc 1 164 14 view .LVU133
 550 0130 4FF08042 		mov	r2, #1073741824
 551 0134 9163     		str	r1, [r2, #56]
 165:Core/Src/main.c ****   TIM3->CCR1 = motor.M3; // PB4  - D5  
 552              		.loc 1 165 3 is_stmt 1 view .LVU134
 165:Core/Src/main.c ****   TIM3->CCR1 = motor.M3; // PB4  - D5  
 553              		.loc 1 165 21 is_stmt 0 view .LVU135
 554 0136 D98B     		ldrh	r1, [r3, #30]
 165:Core/Src/main.c ****   TIM3->CCR1 = motor.M3; // PB4  - D5  
 555              		.loc 1 165 14 view .LVU136
ARM GAS  C:\Users\pc\AppData\Local\Temp\ccXXeMaj.s 			page 23


 556 0138 D163     		str	r1, [r2, #60]
 166:Core/Src/main.c ****   TIM3->CCR2 = motor.M4; // PB5  - D4 
 557              		.loc 1 166 3 is_stmt 1 view .LVU137
 166:Core/Src/main.c ****   TIM3->CCR2 = motor.M4; // PB5  - D4 
 558              		.loc 1 166 21 is_stmt 0 view .LVU138
 559 013a 198C     		ldrh	r1, [r3, #32]
 166:Core/Src/main.c ****   TIM3->CCR2 = motor.M4; // PB5  - D4 
 560              		.loc 1 166 14 view .LVU139
 561 013c 02F58062 		add	r2, r2, #1024
 562 0140 5163     		str	r1, [r2, #52]
 167:Core/Src/main.c **** 
 563              		.loc 1 167 3 is_stmt 1 view .LVU140
 167:Core/Src/main.c **** 
 564              		.loc 1 167 21 is_stmt 0 view .LVU141
 565 0142 5B8C     		ldrh	r3, [r3, #34]
 167:Core/Src/main.c **** 
 566              		.loc 1 167 14 view .LVU142
 567 0144 9363     		str	r3, [r2, #56]
 169:Core/Src/main.c ****   HAL_TIM_PWM_Start(&htim2,TIM_CHANNEL_3);
 568              		.loc 1 169 3 is_stmt 1 view .LVU143
 569 0146 0B4C     		ldr	r4, .L23+4
 570              	.LVL28:
 169:Core/Src/main.c ****   HAL_TIM_PWM_Start(&htim2,TIM_CHANNEL_3);
 571              		.loc 1 169 3 is_stmt 0 view .LVU144
 572 0148 0421     		movs	r1, #4
 573 014a 2046     		mov	r0, r4
 574 014c FFF7FEFF 		bl	HAL_TIM_PWM_Start
 575              	.LVL29:
 170:Core/Src/main.c ****   HAL_TIM_PWM_Start(&htim3,TIM_CHANNEL_1);
 576              		.loc 1 170 3 is_stmt 1 view .LVU145
 577 0150 0821     		movs	r1, #8
 578 0152 2046     		mov	r0, r4
 579 0154 FFF7FEFF 		bl	HAL_TIM_PWM_Start
 580              	.LVL30:
 171:Core/Src/main.c ****   HAL_TIM_PWM_Start(&htim3,TIM_CHANNEL_2);
 581              		.loc 1 171 3 view .LVU146
 582 0158 074C     		ldr	r4, .L23+8
 583 015a 0021     		movs	r1, #0
 584 015c 2046     		mov	r0, r4
 585 015e FFF7FEFF 		bl	HAL_TIM_PWM_Start
 586              	.LVL31:
 172:Core/Src/main.c **** }
 587              		.loc 1 172 3 view .LVU147
 588 0162 0421     		movs	r1, #4
 589 0164 2046     		mov	r0, r4
 590 0166 FFF7FEFF 		bl	HAL_TIM_PWM_Start
 591              	.LVL32:
 173:Core/Src/main.c **** 
 592              		.loc 1 173 1 is_stmt 0 view .LVU148
 593 016a 03B0     		add	sp, sp, #12
 594              	.LCFI12:
 595              		.cfi_def_cfa_offset 36
 596              		@ sp needed
 597 016c BDE8F08F 		pop	{r4, r5, r6, r7, r8, r9, r10, fp, pc}
 598              	.LVL33:
 599              	.L24:
 173:Core/Src/main.c **** 
ARM GAS  C:\Users\pc\AppData\Local\Temp\ccXXeMaj.s 			page 24


 600              		.loc 1 173 1 view .LVU149
 601              		.align	2
 602              	.L23:
 603 0170 00000000 		.word	motor
 604 0174 00000000 		.word	htim2
 605 0178 00000000 		.word	htim3
 606              		.cfi_endproc
 607              	.LFE131:
 609              		.section	.text.Error_Handler,"ax",%progbits
 610              		.align	1
 611              		.global	Error_Handler
 612              		.syntax unified
 613              		.thumb
 614              		.thumb_func
 616              	Error_Handler:
 617              	.LFB141:
 596:Core/Src/main.c **** 
 597:Core/Src/main.c **** /* USER CODE BEGIN 4 */
 598:Core/Src/main.c **** 
 599:Core/Src/main.c **** /* USER CODE END 4 */
 600:Core/Src/main.c **** 
 601:Core/Src/main.c **** /**
 602:Core/Src/main.c ****   * @brief  This function is executed in case of error occurrence.
 603:Core/Src/main.c ****   * @retval None
 604:Core/Src/main.c ****   */
 605:Core/Src/main.c **** void Error_Handler(void)
 606:Core/Src/main.c **** {
 618              		.loc 1 606 1 is_stmt 1 view -0
 619              		.cfi_startproc
 620              		@ Volatile: function does not return.
 621              		@ args = 0, pretend = 0, frame = 0
 622              		@ frame_needed = 0, uses_anonymous_args = 0
 623              		@ link register save eliminated.
 607:Core/Src/main.c ****   /* USER CODE BEGIN Error_Handler_Debug */
 608:Core/Src/main.c ****   /* User can add his own implementation to report the HAL error return state */
 609:Core/Src/main.c ****   __disable_irq();
 624              		.loc 1 609 3 view .LVU151
 625              	.LBB9:
 626              	.LBI9:
 627              		.file 2 "Drivers/CMSIS/Include/cmsis_gcc.h"
   1:Drivers/CMSIS/Include/cmsis_gcc.h **** /**************************************************************************//**
   2:Drivers/CMSIS/Include/cmsis_gcc.h ****  * @file     cmsis_gcc.h
   3:Drivers/CMSIS/Include/cmsis_gcc.h ****  * @brief    CMSIS compiler GCC header file
   4:Drivers/CMSIS/Include/cmsis_gcc.h ****  * @version  V5.0.4
   5:Drivers/CMSIS/Include/cmsis_gcc.h ****  * @date     09. April 2018
   6:Drivers/CMSIS/Include/cmsis_gcc.h ****  ******************************************************************************/
   7:Drivers/CMSIS/Include/cmsis_gcc.h **** /*
   8:Drivers/CMSIS/Include/cmsis_gcc.h ****  * Copyright (c) 2009-2018 Arm Limited. All rights reserved.
   9:Drivers/CMSIS/Include/cmsis_gcc.h ****  *
  10:Drivers/CMSIS/Include/cmsis_gcc.h ****  * SPDX-License-Identifier: Apache-2.0
  11:Drivers/CMSIS/Include/cmsis_gcc.h ****  *
  12:Drivers/CMSIS/Include/cmsis_gcc.h ****  * Licensed under the Apache License, Version 2.0 (the License); you may
  13:Drivers/CMSIS/Include/cmsis_gcc.h ****  * not use this file except in compliance with the License.
  14:Drivers/CMSIS/Include/cmsis_gcc.h ****  * You may obtain a copy of the License at
  15:Drivers/CMSIS/Include/cmsis_gcc.h ****  *
  16:Drivers/CMSIS/Include/cmsis_gcc.h ****  * www.apache.org/licenses/LICENSE-2.0
  17:Drivers/CMSIS/Include/cmsis_gcc.h ****  *
ARM GAS  C:\Users\pc\AppData\Local\Temp\ccXXeMaj.s 			page 25


  18:Drivers/CMSIS/Include/cmsis_gcc.h ****  * Unless required by applicable law or agreed to in writing, software
  19:Drivers/CMSIS/Include/cmsis_gcc.h ****  * distributed under the License is distributed on an AS IS BASIS, WITHOUT
  20:Drivers/CMSIS/Include/cmsis_gcc.h ****  * WARRANTIES OR CONDITIONS OF ANY KIND, either express or implied.
  21:Drivers/CMSIS/Include/cmsis_gcc.h ****  * See the License for the specific language governing permissions and
  22:Drivers/CMSIS/Include/cmsis_gcc.h ****  * limitations under the License.
  23:Drivers/CMSIS/Include/cmsis_gcc.h ****  */
  24:Drivers/CMSIS/Include/cmsis_gcc.h **** 
  25:Drivers/CMSIS/Include/cmsis_gcc.h **** #ifndef __CMSIS_GCC_H
  26:Drivers/CMSIS/Include/cmsis_gcc.h **** #define __CMSIS_GCC_H
  27:Drivers/CMSIS/Include/cmsis_gcc.h **** 
  28:Drivers/CMSIS/Include/cmsis_gcc.h **** /* ignore some GCC warnings */
  29:Drivers/CMSIS/Include/cmsis_gcc.h **** #pragma GCC diagnostic push
  30:Drivers/CMSIS/Include/cmsis_gcc.h **** #pragma GCC diagnostic ignored "-Wsign-conversion"
  31:Drivers/CMSIS/Include/cmsis_gcc.h **** #pragma GCC diagnostic ignored "-Wconversion"
  32:Drivers/CMSIS/Include/cmsis_gcc.h **** #pragma GCC diagnostic ignored "-Wunused-parameter"
  33:Drivers/CMSIS/Include/cmsis_gcc.h **** 
  34:Drivers/CMSIS/Include/cmsis_gcc.h **** /* Fallback for __has_builtin */
  35:Drivers/CMSIS/Include/cmsis_gcc.h **** #ifndef __has_builtin
  36:Drivers/CMSIS/Include/cmsis_gcc.h ****   #define __has_builtin(x) (0)
  37:Drivers/CMSIS/Include/cmsis_gcc.h **** #endif
  38:Drivers/CMSIS/Include/cmsis_gcc.h **** 
  39:Drivers/CMSIS/Include/cmsis_gcc.h **** /* CMSIS compiler specific defines */
  40:Drivers/CMSIS/Include/cmsis_gcc.h **** #ifndef   __ASM
  41:Drivers/CMSIS/Include/cmsis_gcc.h ****   #define __ASM                                  __asm
  42:Drivers/CMSIS/Include/cmsis_gcc.h **** #endif
  43:Drivers/CMSIS/Include/cmsis_gcc.h **** #ifndef   __INLINE
  44:Drivers/CMSIS/Include/cmsis_gcc.h ****   #define __INLINE                               inline
  45:Drivers/CMSIS/Include/cmsis_gcc.h **** #endif
  46:Drivers/CMSIS/Include/cmsis_gcc.h **** #ifndef   __STATIC_INLINE
  47:Drivers/CMSIS/Include/cmsis_gcc.h ****   #define __STATIC_INLINE                        static inline
  48:Drivers/CMSIS/Include/cmsis_gcc.h **** #endif
  49:Drivers/CMSIS/Include/cmsis_gcc.h **** #ifndef   __STATIC_FORCEINLINE                 
  50:Drivers/CMSIS/Include/cmsis_gcc.h ****   #define __STATIC_FORCEINLINE                   __attribute__((always_inline)) static inline
  51:Drivers/CMSIS/Include/cmsis_gcc.h **** #endif                                           
  52:Drivers/CMSIS/Include/cmsis_gcc.h **** #ifndef   __NO_RETURN
  53:Drivers/CMSIS/Include/cmsis_gcc.h ****   #define __NO_RETURN                            __attribute__((__noreturn__))
  54:Drivers/CMSIS/Include/cmsis_gcc.h **** #endif
  55:Drivers/CMSIS/Include/cmsis_gcc.h **** #ifndef   __USED
  56:Drivers/CMSIS/Include/cmsis_gcc.h ****   #define __USED                                 __attribute__((used))
  57:Drivers/CMSIS/Include/cmsis_gcc.h **** #endif
  58:Drivers/CMSIS/Include/cmsis_gcc.h **** #ifndef   __WEAK
  59:Drivers/CMSIS/Include/cmsis_gcc.h ****   #define __WEAK                                 __attribute__((weak))
  60:Drivers/CMSIS/Include/cmsis_gcc.h **** #endif
  61:Drivers/CMSIS/Include/cmsis_gcc.h **** #ifndef   __PACKED
  62:Drivers/CMSIS/Include/cmsis_gcc.h ****   #define __PACKED                               __attribute__((packed, aligned(1)))
  63:Drivers/CMSIS/Include/cmsis_gcc.h **** #endif
  64:Drivers/CMSIS/Include/cmsis_gcc.h **** #ifndef   __PACKED_STRUCT
  65:Drivers/CMSIS/Include/cmsis_gcc.h ****   #define __PACKED_STRUCT                        struct __attribute__((packed, aligned(1)))
  66:Drivers/CMSIS/Include/cmsis_gcc.h **** #endif
  67:Drivers/CMSIS/Include/cmsis_gcc.h **** #ifndef   __PACKED_UNION
  68:Drivers/CMSIS/Include/cmsis_gcc.h ****   #define __PACKED_UNION                         union __attribute__((packed, aligned(1)))
  69:Drivers/CMSIS/Include/cmsis_gcc.h **** #endif
  70:Drivers/CMSIS/Include/cmsis_gcc.h **** #ifndef   __UNALIGNED_UINT32        /* deprecated */
  71:Drivers/CMSIS/Include/cmsis_gcc.h ****   #pragma GCC diagnostic push
  72:Drivers/CMSIS/Include/cmsis_gcc.h ****   #pragma GCC diagnostic ignored "-Wpacked"
  73:Drivers/CMSIS/Include/cmsis_gcc.h ****   #pragma GCC diagnostic ignored "-Wattributes"
  74:Drivers/CMSIS/Include/cmsis_gcc.h ****   struct __attribute__((packed)) T_UINT32 { uint32_t v; };
ARM GAS  C:\Users\pc\AppData\Local\Temp\ccXXeMaj.s 			page 26


  75:Drivers/CMSIS/Include/cmsis_gcc.h ****   #pragma GCC diagnostic pop
  76:Drivers/CMSIS/Include/cmsis_gcc.h ****   #define __UNALIGNED_UINT32(x)                  (((struct T_UINT32 *)(x))->v)
  77:Drivers/CMSIS/Include/cmsis_gcc.h **** #endif
  78:Drivers/CMSIS/Include/cmsis_gcc.h **** #ifndef   __UNALIGNED_UINT16_WRITE
  79:Drivers/CMSIS/Include/cmsis_gcc.h ****   #pragma GCC diagnostic push
  80:Drivers/CMSIS/Include/cmsis_gcc.h ****   #pragma GCC diagnostic ignored "-Wpacked"
  81:Drivers/CMSIS/Include/cmsis_gcc.h ****   #pragma GCC diagnostic ignored "-Wattributes"
  82:Drivers/CMSIS/Include/cmsis_gcc.h ****   __PACKED_STRUCT T_UINT16_WRITE { uint16_t v; };
  83:Drivers/CMSIS/Include/cmsis_gcc.h ****   #pragma GCC diagnostic pop
  84:Drivers/CMSIS/Include/cmsis_gcc.h ****   #define __UNALIGNED_UINT16_WRITE(addr, val)    (void)((((struct T_UINT16_WRITE *)(void *)(addr))-
  85:Drivers/CMSIS/Include/cmsis_gcc.h **** #endif
  86:Drivers/CMSIS/Include/cmsis_gcc.h **** #ifndef   __UNALIGNED_UINT16_READ
  87:Drivers/CMSIS/Include/cmsis_gcc.h ****   #pragma GCC diagnostic push
  88:Drivers/CMSIS/Include/cmsis_gcc.h ****   #pragma GCC diagnostic ignored "-Wpacked"
  89:Drivers/CMSIS/Include/cmsis_gcc.h ****   #pragma GCC diagnostic ignored "-Wattributes"
  90:Drivers/CMSIS/Include/cmsis_gcc.h ****   __PACKED_STRUCT T_UINT16_READ { uint16_t v; };
  91:Drivers/CMSIS/Include/cmsis_gcc.h ****   #pragma GCC diagnostic pop
  92:Drivers/CMSIS/Include/cmsis_gcc.h ****   #define __UNALIGNED_UINT16_READ(addr)          (((const struct T_UINT16_READ *)(const void *)(add
  93:Drivers/CMSIS/Include/cmsis_gcc.h **** #endif
  94:Drivers/CMSIS/Include/cmsis_gcc.h **** #ifndef   __UNALIGNED_UINT32_WRITE
  95:Drivers/CMSIS/Include/cmsis_gcc.h ****   #pragma GCC diagnostic push
  96:Drivers/CMSIS/Include/cmsis_gcc.h ****   #pragma GCC diagnostic ignored "-Wpacked"
  97:Drivers/CMSIS/Include/cmsis_gcc.h ****   #pragma GCC diagnostic ignored "-Wattributes"
  98:Drivers/CMSIS/Include/cmsis_gcc.h ****   __PACKED_STRUCT T_UINT32_WRITE { uint32_t v; };
  99:Drivers/CMSIS/Include/cmsis_gcc.h ****   #pragma GCC diagnostic pop
 100:Drivers/CMSIS/Include/cmsis_gcc.h ****   #define __UNALIGNED_UINT32_WRITE(addr, val)    (void)((((struct T_UINT32_WRITE *)(void *)(addr))-
 101:Drivers/CMSIS/Include/cmsis_gcc.h **** #endif
 102:Drivers/CMSIS/Include/cmsis_gcc.h **** #ifndef   __UNALIGNED_UINT32_READ
 103:Drivers/CMSIS/Include/cmsis_gcc.h ****   #pragma GCC diagnostic push
 104:Drivers/CMSIS/Include/cmsis_gcc.h ****   #pragma GCC diagnostic ignored "-Wpacked"
 105:Drivers/CMSIS/Include/cmsis_gcc.h ****   #pragma GCC diagnostic ignored "-Wattributes"
 106:Drivers/CMSIS/Include/cmsis_gcc.h ****   __PACKED_STRUCT T_UINT32_READ { uint32_t v; };
 107:Drivers/CMSIS/Include/cmsis_gcc.h ****   #pragma GCC diagnostic pop
 108:Drivers/CMSIS/Include/cmsis_gcc.h ****   #define __UNALIGNED_UINT32_READ(addr)          (((const struct T_UINT32_READ *)(const void *)(add
 109:Drivers/CMSIS/Include/cmsis_gcc.h **** #endif
 110:Drivers/CMSIS/Include/cmsis_gcc.h **** #ifndef   __ALIGNED
 111:Drivers/CMSIS/Include/cmsis_gcc.h ****   #define __ALIGNED(x)                           __attribute__((aligned(x)))
 112:Drivers/CMSIS/Include/cmsis_gcc.h **** #endif
 113:Drivers/CMSIS/Include/cmsis_gcc.h **** #ifndef   __RESTRICT
 114:Drivers/CMSIS/Include/cmsis_gcc.h ****   #define __RESTRICT                             __restrict
 115:Drivers/CMSIS/Include/cmsis_gcc.h **** #endif
 116:Drivers/CMSIS/Include/cmsis_gcc.h **** 
 117:Drivers/CMSIS/Include/cmsis_gcc.h **** 
 118:Drivers/CMSIS/Include/cmsis_gcc.h **** /* ###########################  Core Function Access  ########################### */
 119:Drivers/CMSIS/Include/cmsis_gcc.h **** /** \ingroup  CMSIS_Core_FunctionInterface
 120:Drivers/CMSIS/Include/cmsis_gcc.h ****     \defgroup CMSIS_Core_RegAccFunctions CMSIS Core Register Access Functions
 121:Drivers/CMSIS/Include/cmsis_gcc.h ****   @{
 122:Drivers/CMSIS/Include/cmsis_gcc.h ****  */
 123:Drivers/CMSIS/Include/cmsis_gcc.h **** 
 124:Drivers/CMSIS/Include/cmsis_gcc.h **** /**
 125:Drivers/CMSIS/Include/cmsis_gcc.h ****   \brief   Enable IRQ Interrupts
 126:Drivers/CMSIS/Include/cmsis_gcc.h ****   \details Enables IRQ interrupts by clearing the I-bit in the CPSR.
 127:Drivers/CMSIS/Include/cmsis_gcc.h ****            Can only be executed in Privileged modes.
 128:Drivers/CMSIS/Include/cmsis_gcc.h ****  */
 129:Drivers/CMSIS/Include/cmsis_gcc.h **** __STATIC_FORCEINLINE void __enable_irq(void)
 130:Drivers/CMSIS/Include/cmsis_gcc.h **** {
 131:Drivers/CMSIS/Include/cmsis_gcc.h ****   __ASM volatile ("cpsie i" : : : "memory");
ARM GAS  C:\Users\pc\AppData\Local\Temp\ccXXeMaj.s 			page 27


 132:Drivers/CMSIS/Include/cmsis_gcc.h **** }
 133:Drivers/CMSIS/Include/cmsis_gcc.h **** 
 134:Drivers/CMSIS/Include/cmsis_gcc.h **** 
 135:Drivers/CMSIS/Include/cmsis_gcc.h **** /**
 136:Drivers/CMSIS/Include/cmsis_gcc.h ****   \brief   Disable IRQ Interrupts
 137:Drivers/CMSIS/Include/cmsis_gcc.h ****   \details Disables IRQ interrupts by setting the I-bit in the CPSR.
 138:Drivers/CMSIS/Include/cmsis_gcc.h ****            Can only be executed in Privileged modes.
 139:Drivers/CMSIS/Include/cmsis_gcc.h ****  */
 140:Drivers/CMSIS/Include/cmsis_gcc.h **** __STATIC_FORCEINLINE void __disable_irq(void)
 628              		.loc 2 140 27 view .LVU152
 629              	.LBB10:
 141:Drivers/CMSIS/Include/cmsis_gcc.h **** {
 142:Drivers/CMSIS/Include/cmsis_gcc.h ****   __ASM volatile ("cpsid i" : : : "memory");
 630              		.loc 2 142 3 view .LVU153
 631              		.syntax unified
 632              	@ 142 "Drivers/CMSIS/Include/cmsis_gcc.h" 1
 633 0000 72B6     		cpsid i
 634              	@ 0 "" 2
 635              		.thumb
 636              		.syntax unified
 637              	.L26:
 638              	.LBE10:
 639              	.LBE9:
 610:Core/Src/main.c ****   while (1)
 640              		.loc 1 610 3 discriminator 1 view .LVU154
 611:Core/Src/main.c ****   {
 612:Core/Src/main.c ****   }
 641              		.loc 1 612 3 discriminator 1 view .LVU155
 610:Core/Src/main.c ****   while (1)
 642              		.loc 1 610 9 discriminator 1 view .LVU156
 643 0002 FEE7     		b	.L26
 644              		.cfi_endproc
 645              	.LFE141:
 647              		.section	.text.MX_I2C1_Init,"ax",%progbits
 648              		.align	1
 649              		.syntax unified
 650              		.thumb
 651              		.thumb_func
 653              	MX_I2C1_Init:
 654              	.LFB134:
 332:Core/Src/main.c **** 
 655              		.loc 1 332 1 view -0
 656              		.cfi_startproc
 657              		@ args = 0, pretend = 0, frame = 0
 658              		@ frame_needed = 0, uses_anonymous_args = 0
 659 0000 08B5     		push	{r3, lr}
 660              	.LCFI13:
 661              		.cfi_def_cfa_offset 8
 662              		.cfi_offset 3, -8
 663              		.cfi_offset 14, -4
 341:Core/Src/main.c ****   hi2c1.Init.ClockSpeed = 100000;
 664              		.loc 1 341 3 view .LVU158
 341:Core/Src/main.c ****   hi2c1.Init.ClockSpeed = 100000;
 665              		.loc 1 341 18 is_stmt 0 view .LVU159
 666 0002 0A48     		ldr	r0, .L31
 667 0004 0A4B     		ldr	r3, .L31+4
 668 0006 0360     		str	r3, [r0]
ARM GAS  C:\Users\pc\AppData\Local\Temp\ccXXeMaj.s 			page 28


 342:Core/Src/main.c ****   hi2c1.Init.DutyCycle = I2C_DUTYCYCLE_2;
 669              		.loc 1 342 3 is_stmt 1 view .LVU160
 342:Core/Src/main.c ****   hi2c1.Init.DutyCycle = I2C_DUTYCYCLE_2;
 670              		.loc 1 342 25 is_stmt 0 view .LVU161
 671 0008 0A4B     		ldr	r3, .L31+8
 672 000a 4360     		str	r3, [r0, #4]
 343:Core/Src/main.c ****   hi2c1.Init.OwnAddress1 = 0;
 673              		.loc 1 343 3 is_stmt 1 view .LVU162
 343:Core/Src/main.c ****   hi2c1.Init.OwnAddress1 = 0;
 674              		.loc 1 343 24 is_stmt 0 view .LVU163
 675 000c 0023     		movs	r3, #0
 676 000e 8360     		str	r3, [r0, #8]
 344:Core/Src/main.c ****   hi2c1.Init.AddressingMode = I2C_ADDRESSINGMODE_7BIT;
 677              		.loc 1 344 3 is_stmt 1 view .LVU164
 344:Core/Src/main.c ****   hi2c1.Init.AddressingMode = I2C_ADDRESSINGMODE_7BIT;
 678              		.loc 1 344 26 is_stmt 0 view .LVU165
 679 0010 C360     		str	r3, [r0, #12]
 345:Core/Src/main.c ****   hi2c1.Init.DualAddressMode = I2C_DUALADDRESS_DISABLE;
 680              		.loc 1 345 3 is_stmt 1 view .LVU166
 345:Core/Src/main.c ****   hi2c1.Init.DualAddressMode = I2C_DUALADDRESS_DISABLE;
 681              		.loc 1 345 29 is_stmt 0 view .LVU167
 682 0012 4FF48042 		mov	r2, #16384
 683 0016 0261     		str	r2, [r0, #16]
 346:Core/Src/main.c ****   hi2c1.Init.OwnAddress2 = 0;
 684              		.loc 1 346 3 is_stmt 1 view .LVU168
 346:Core/Src/main.c ****   hi2c1.Init.OwnAddress2 = 0;
 685              		.loc 1 346 30 is_stmt 0 view .LVU169
 686 0018 4361     		str	r3, [r0, #20]
 347:Core/Src/main.c ****   hi2c1.Init.GeneralCallMode = I2C_GENERALCALL_DISABLE;
 687              		.loc 1 347 3 is_stmt 1 view .LVU170
 347:Core/Src/main.c ****   hi2c1.Init.GeneralCallMode = I2C_GENERALCALL_DISABLE;
 688              		.loc 1 347 26 is_stmt 0 view .LVU171
 689 001a 8361     		str	r3, [r0, #24]
 348:Core/Src/main.c ****   hi2c1.Init.NoStretchMode = I2C_NOSTRETCH_DISABLE;
 690              		.loc 1 348 3 is_stmt 1 view .LVU172
 348:Core/Src/main.c ****   hi2c1.Init.NoStretchMode = I2C_NOSTRETCH_DISABLE;
 691              		.loc 1 348 30 is_stmt 0 view .LVU173
 692 001c C361     		str	r3, [r0, #28]
 349:Core/Src/main.c ****   if (HAL_I2C_Init(&hi2c1) != HAL_OK)
 693              		.loc 1 349 3 is_stmt 1 view .LVU174
 349:Core/Src/main.c ****   if (HAL_I2C_Init(&hi2c1) != HAL_OK)
 694              		.loc 1 349 28 is_stmt 0 view .LVU175
 695 001e 0362     		str	r3, [r0, #32]
 350:Core/Src/main.c ****   {
 696              		.loc 1 350 3 is_stmt 1 view .LVU176
 350:Core/Src/main.c ****   {
 697              		.loc 1 350 7 is_stmt 0 view .LVU177
 698 0020 FFF7FEFF 		bl	HAL_I2C_Init
 699              	.LVL34:
 350:Core/Src/main.c ****   {
 700              		.loc 1 350 6 view .LVU178
 701 0024 00B9     		cbnz	r0, .L30
 358:Core/Src/main.c **** 
 702              		.loc 1 358 1 view .LVU179
 703 0026 08BD     		pop	{r3, pc}
 704              	.L30:
 352:Core/Src/main.c ****   }
ARM GAS  C:\Users\pc\AppData\Local\Temp\ccXXeMaj.s 			page 29


 705              		.loc 1 352 5 is_stmt 1 view .LVU180
 706 0028 FFF7FEFF 		bl	Error_Handler
 707              	.LVL35:
 708              	.L32:
 709              		.align	2
 710              	.L31:
 711 002c 00000000 		.word	hi2c1
 712 0030 00540040 		.word	1073763328
 713 0034 A0860100 		.word	100000
 714              		.cfi_endproc
 715              	.LFE134:
 717              		.section	.text.MX_USART1_UART_Init,"ax",%progbits
 718              		.align	1
 719              		.syntax unified
 720              		.thumb
 721              		.thumb_func
 723              	MX_USART1_UART_Init:
 724              	.LFB137:
 492:Core/Src/main.c **** 
 725              		.loc 1 492 1 view -0
 726              		.cfi_startproc
 727              		@ args = 0, pretend = 0, frame = 0
 728              		@ frame_needed = 0, uses_anonymous_args = 0
 729 0000 08B5     		push	{r3, lr}
 730              	.LCFI14:
 731              		.cfi_def_cfa_offset 8
 732              		.cfi_offset 3, -8
 733              		.cfi_offset 14, -4
 501:Core/Src/main.c ****   huart1.Init.BaudRate = 115200;
 734              		.loc 1 501 3 view .LVU182
 501:Core/Src/main.c ****   huart1.Init.BaudRate = 115200;
 735              		.loc 1 501 19 is_stmt 0 view .LVU183
 736 0002 0A48     		ldr	r0, .L37
 737 0004 0A4B     		ldr	r3, .L37+4
 738 0006 0360     		str	r3, [r0]
 502:Core/Src/main.c ****   huart1.Init.WordLength = UART_WORDLENGTH_8B;
 739              		.loc 1 502 3 is_stmt 1 view .LVU184
 502:Core/Src/main.c ****   huart1.Init.WordLength = UART_WORDLENGTH_8B;
 740              		.loc 1 502 24 is_stmt 0 view .LVU185
 741 0008 4FF4E133 		mov	r3, #115200
 742 000c 4360     		str	r3, [r0, #4]
 503:Core/Src/main.c ****   huart1.Init.StopBits = UART_STOPBITS_1;
 743              		.loc 1 503 3 is_stmt 1 view .LVU186
 503:Core/Src/main.c ****   huart1.Init.StopBits = UART_STOPBITS_1;
 744              		.loc 1 503 26 is_stmt 0 view .LVU187
 745 000e 0023     		movs	r3, #0
 746 0010 8360     		str	r3, [r0, #8]
 504:Core/Src/main.c ****   huart1.Init.Parity = UART_PARITY_NONE;
 747              		.loc 1 504 3 is_stmt 1 view .LVU188
 504:Core/Src/main.c ****   huart1.Init.Parity = UART_PARITY_NONE;
 748              		.loc 1 504 24 is_stmt 0 view .LVU189
 749 0012 C360     		str	r3, [r0, #12]
 505:Core/Src/main.c ****   huart1.Init.Mode = UART_MODE_TX_RX;
 750              		.loc 1 505 3 is_stmt 1 view .LVU190
 505:Core/Src/main.c ****   huart1.Init.Mode = UART_MODE_TX_RX;
 751              		.loc 1 505 22 is_stmt 0 view .LVU191
 752 0014 0361     		str	r3, [r0, #16]
ARM GAS  C:\Users\pc\AppData\Local\Temp\ccXXeMaj.s 			page 30


 506:Core/Src/main.c ****   huart1.Init.HwFlowCtl = UART_HWCONTROL_NONE;
 753              		.loc 1 506 3 is_stmt 1 view .LVU192
 506:Core/Src/main.c ****   huart1.Init.HwFlowCtl = UART_HWCONTROL_NONE;
 754              		.loc 1 506 20 is_stmt 0 view .LVU193
 755 0016 0C22     		movs	r2, #12
 756 0018 4261     		str	r2, [r0, #20]
 507:Core/Src/main.c ****   huart1.Init.OverSampling = UART_OVERSAMPLING_16;
 757              		.loc 1 507 3 is_stmt 1 view .LVU194
 507:Core/Src/main.c ****   huart1.Init.OverSampling = UART_OVERSAMPLING_16;
 758              		.loc 1 507 25 is_stmt 0 view .LVU195
 759 001a 8361     		str	r3, [r0, #24]
 508:Core/Src/main.c ****   if (HAL_UART_Init(&huart1) != HAL_OK)
 760              		.loc 1 508 3 is_stmt 1 view .LVU196
 508:Core/Src/main.c ****   if (HAL_UART_Init(&huart1) != HAL_OK)
 761              		.loc 1 508 28 is_stmt 0 view .LVU197
 762 001c C361     		str	r3, [r0, #28]
 509:Core/Src/main.c ****   {
 763              		.loc 1 509 3 is_stmt 1 view .LVU198
 509:Core/Src/main.c ****   {
 764              		.loc 1 509 7 is_stmt 0 view .LVU199
 765 001e FFF7FEFF 		bl	HAL_UART_Init
 766              	.LVL36:
 509:Core/Src/main.c ****   {
 767              		.loc 1 509 6 view .LVU200
 768 0022 00B9     		cbnz	r0, .L36
 517:Core/Src/main.c **** 
 769              		.loc 1 517 1 view .LVU201
 770 0024 08BD     		pop	{r3, pc}
 771              	.L36:
 511:Core/Src/main.c ****   }
 772              		.loc 1 511 5 is_stmt 1 view .LVU202
 773 0026 FFF7FEFF 		bl	Error_Handler
 774              	.LVL37:
 775              	.L38:
 776 002a 00BF     		.align	2
 777              	.L37:
 778 002c 00000000 		.word	huart1
 779 0030 00100140 		.word	1073811456
 780              		.cfi_endproc
 781              	.LFE137:
 783              		.section	.text.MX_USART2_UART_Init,"ax",%progbits
 784              		.align	1
 785              		.syntax unified
 786              		.thumb
 787              		.thumb_func
 789              	MX_USART2_UART_Init:
 790              	.LFB138:
 525:Core/Src/main.c **** 
 791              		.loc 1 525 1 view -0
 792              		.cfi_startproc
 793              		@ args = 0, pretend = 0, frame = 0
 794              		@ frame_needed = 0, uses_anonymous_args = 0
 795 0000 08B5     		push	{r3, lr}
 796              	.LCFI15:
 797              		.cfi_def_cfa_offset 8
 798              		.cfi_offset 3, -8
 799              		.cfi_offset 14, -4
ARM GAS  C:\Users\pc\AppData\Local\Temp\ccXXeMaj.s 			page 31


 534:Core/Src/main.c ****   huart2.Init.BaudRate = 115200;
 800              		.loc 1 534 3 view .LVU204
 534:Core/Src/main.c ****   huart2.Init.BaudRate = 115200;
 801              		.loc 1 534 19 is_stmt 0 view .LVU205
 802 0002 0A48     		ldr	r0, .L43
 803 0004 0A4B     		ldr	r3, .L43+4
 804 0006 0360     		str	r3, [r0]
 535:Core/Src/main.c ****   huart2.Init.WordLength = UART_WORDLENGTH_8B;
 805              		.loc 1 535 3 is_stmt 1 view .LVU206
 535:Core/Src/main.c ****   huart2.Init.WordLength = UART_WORDLENGTH_8B;
 806              		.loc 1 535 24 is_stmt 0 view .LVU207
 807 0008 4FF4E133 		mov	r3, #115200
 808 000c 4360     		str	r3, [r0, #4]
 536:Core/Src/main.c ****   huart2.Init.StopBits = UART_STOPBITS_1;
 809              		.loc 1 536 3 is_stmt 1 view .LVU208
 536:Core/Src/main.c ****   huart2.Init.StopBits = UART_STOPBITS_1;
 810              		.loc 1 536 26 is_stmt 0 view .LVU209
 811 000e 0023     		movs	r3, #0
 812 0010 8360     		str	r3, [r0, #8]
 537:Core/Src/main.c ****   huart2.Init.Parity = UART_PARITY_NONE;
 813              		.loc 1 537 3 is_stmt 1 view .LVU210
 537:Core/Src/main.c ****   huart2.Init.Parity = UART_PARITY_NONE;
 814              		.loc 1 537 24 is_stmt 0 view .LVU211
 815 0012 C360     		str	r3, [r0, #12]
 538:Core/Src/main.c ****   huart2.Init.Mode = UART_MODE_TX_RX;
 816              		.loc 1 538 3 is_stmt 1 view .LVU212
 538:Core/Src/main.c ****   huart2.Init.Mode = UART_MODE_TX_RX;
 817              		.loc 1 538 22 is_stmt 0 view .LVU213
 818 0014 0361     		str	r3, [r0, #16]
 539:Core/Src/main.c ****   huart2.Init.HwFlowCtl = UART_HWCONTROL_NONE;
 819              		.loc 1 539 3 is_stmt 1 view .LVU214
 539:Core/Src/main.c ****   huart2.Init.HwFlowCtl = UART_HWCONTROL_NONE;
 820              		.loc 1 539 20 is_stmt 0 view .LVU215
 821 0016 0C22     		movs	r2, #12
 822 0018 4261     		str	r2, [r0, #20]
 540:Core/Src/main.c ****   huart2.Init.OverSampling = UART_OVERSAMPLING_16;
 823              		.loc 1 540 3 is_stmt 1 view .LVU216
 540:Core/Src/main.c ****   huart2.Init.OverSampling = UART_OVERSAMPLING_16;
 824              		.loc 1 540 25 is_stmt 0 view .LVU217
 825 001a 8361     		str	r3, [r0, #24]
 541:Core/Src/main.c ****   if (HAL_UART_Init(&huart2) != HAL_OK)
 826              		.loc 1 541 3 is_stmt 1 view .LVU218
 541:Core/Src/main.c ****   if (HAL_UART_Init(&huart2) != HAL_OK)
 827              		.loc 1 541 28 is_stmt 0 view .LVU219
 828 001c C361     		str	r3, [r0, #28]
 542:Core/Src/main.c ****   {
 829              		.loc 1 542 3 is_stmt 1 view .LVU220
 542:Core/Src/main.c ****   {
 830              		.loc 1 542 7 is_stmt 0 view .LVU221
 831 001e FFF7FEFF 		bl	HAL_UART_Init
 832              	.LVL38:
 542:Core/Src/main.c ****   {
 833              		.loc 1 542 6 view .LVU222
 834 0022 00B9     		cbnz	r0, .L42
 550:Core/Src/main.c **** 
 835              		.loc 1 550 1 view .LVU223
 836 0024 08BD     		pop	{r3, pc}
ARM GAS  C:\Users\pc\AppData\Local\Temp\ccXXeMaj.s 			page 32


 837              	.L42:
 544:Core/Src/main.c ****   }
 838              		.loc 1 544 5 is_stmt 1 view .LVU224
 839 0026 FFF7FEFF 		bl	Error_Handler
 840              	.LVL39:
 841              	.L44:
 842 002a 00BF     		.align	2
 843              	.L43:
 844 002c 00000000 		.word	huart2
 845 0030 00440040 		.word	1073759232
 846              		.cfi_endproc
 847              	.LFE138:
 849              		.section	.text.MX_TIM2_Init,"ax",%progbits
 850              		.align	1
 851              		.syntax unified
 852              		.thumb
 853              		.thumb_func
 855              	MX_TIM2_Init:
 856              	.LFB135:
 366:Core/Src/main.c **** 
 857              		.loc 1 366 1 view -0
 858              		.cfi_startproc
 859              		@ args = 0, pretend = 0, frame = 56
 860              		@ frame_needed = 0, uses_anonymous_args = 0
 861 0000 00B5     		push	{lr}
 862              	.LCFI16:
 863              		.cfi_def_cfa_offset 4
 864              		.cfi_offset 14, -4
 865 0002 8FB0     		sub	sp, sp, #60
 866              	.LCFI17:
 867              		.cfi_def_cfa_offset 64
 372:Core/Src/main.c ****   TIM_MasterConfigTypeDef sMasterConfig = {0};
 868              		.loc 1 372 3 view .LVU226
 372:Core/Src/main.c ****   TIM_MasterConfigTypeDef sMasterConfig = {0};
 869              		.loc 1 372 26 is_stmt 0 view .LVU227
 870 0004 0023     		movs	r3, #0
 871 0006 0A93     		str	r3, [sp, #40]
 872 0008 0B93     		str	r3, [sp, #44]
 873 000a 0C93     		str	r3, [sp, #48]
 874 000c 0D93     		str	r3, [sp, #52]
 373:Core/Src/main.c ****   TIM_OC_InitTypeDef sConfigOC = {0};
 875              		.loc 1 373 3 is_stmt 1 view .LVU228
 373:Core/Src/main.c ****   TIM_OC_InitTypeDef sConfigOC = {0};
 876              		.loc 1 373 27 is_stmt 0 view .LVU229
 877 000e 0893     		str	r3, [sp, #32]
 878 0010 0993     		str	r3, [sp, #36]
 374:Core/Src/main.c **** 
 879              		.loc 1 374 3 is_stmt 1 view .LVU230
 374:Core/Src/main.c **** 
 880              		.loc 1 374 22 is_stmt 0 view .LVU231
 881 0012 0193     		str	r3, [sp, #4]
 882 0014 0293     		str	r3, [sp, #8]
 883 0016 0393     		str	r3, [sp, #12]
 884 0018 0493     		str	r3, [sp, #16]
 885 001a 0593     		str	r3, [sp, #20]
 886 001c 0693     		str	r3, [sp, #24]
 887 001e 0793     		str	r3, [sp, #28]
ARM GAS  C:\Users\pc\AppData\Local\Temp\ccXXeMaj.s 			page 33


 379:Core/Src/main.c ****   htim2.Init.Prescaler = 90-1;
 888              		.loc 1 379 3 is_stmt 1 view .LVU232
 379:Core/Src/main.c ****   htim2.Init.Prescaler = 90-1;
 889              		.loc 1 379 18 is_stmt 0 view .LVU233
 890 0020 2348     		ldr	r0, .L59
 891 0022 4FF08042 		mov	r2, #1073741824
 892 0026 0260     		str	r2, [r0]
 380:Core/Src/main.c ****   htim2.Init.CounterMode = TIM_COUNTERMODE_UP;
 893              		.loc 1 380 3 is_stmt 1 view .LVU234
 380:Core/Src/main.c ****   htim2.Init.CounterMode = TIM_COUNTERMODE_UP;
 894              		.loc 1 380 24 is_stmt 0 view .LVU235
 895 0028 5922     		movs	r2, #89
 896 002a 4260     		str	r2, [r0, #4]
 381:Core/Src/main.c ****   htim2.Init.Period = 20000-1;
 897              		.loc 1 381 3 is_stmt 1 view .LVU236
 381:Core/Src/main.c ****   htim2.Init.Period = 20000-1;
 898              		.loc 1 381 26 is_stmt 0 view .LVU237
 899 002c 8360     		str	r3, [r0, #8]
 382:Core/Src/main.c ****   htim2.Init.ClockDivision = TIM_CLOCKDIVISION_DIV1;
 900              		.loc 1 382 3 is_stmt 1 view .LVU238
 382:Core/Src/main.c ****   htim2.Init.ClockDivision = TIM_CLOCKDIVISION_DIV1;
 901              		.loc 1 382 21 is_stmt 0 view .LVU239
 902 002e 44F61F62 		movw	r2, #19999
 903 0032 C260     		str	r2, [r0, #12]
 383:Core/Src/main.c ****   htim2.Init.AutoReloadPreload = TIM_AUTORELOAD_PRELOAD_DISABLE;
 904              		.loc 1 383 3 is_stmt 1 view .LVU240
 383:Core/Src/main.c ****   htim2.Init.AutoReloadPreload = TIM_AUTORELOAD_PRELOAD_DISABLE;
 905              		.loc 1 383 28 is_stmt 0 view .LVU241
 906 0034 0361     		str	r3, [r0, #16]
 384:Core/Src/main.c ****   if (HAL_TIM_Base_Init(&htim2) != HAL_OK)
 907              		.loc 1 384 3 is_stmt 1 view .LVU242
 384:Core/Src/main.c ****   if (HAL_TIM_Base_Init(&htim2) != HAL_OK)
 908              		.loc 1 384 32 is_stmt 0 view .LVU243
 909 0036 8361     		str	r3, [r0, #24]
 385:Core/Src/main.c ****   {
 910              		.loc 1 385 3 is_stmt 1 view .LVU244
 385:Core/Src/main.c ****   {
 911              		.loc 1 385 7 is_stmt 0 view .LVU245
 912 0038 FFF7FEFF 		bl	HAL_TIM_Base_Init
 913              	.LVL40:
 385:Core/Src/main.c ****   {
 914              		.loc 1 385 6 view .LVU246
 915 003c 60BB     		cbnz	r0, .L53
 389:Core/Src/main.c ****   if (HAL_TIM_ConfigClockSource(&htim2, &sClockSourceConfig) != HAL_OK)
 916              		.loc 1 389 3 is_stmt 1 view .LVU247
 389:Core/Src/main.c ****   if (HAL_TIM_ConfigClockSource(&htim2, &sClockSourceConfig) != HAL_OK)
 917              		.loc 1 389 34 is_stmt 0 view .LVU248
 918 003e 4FF48053 		mov	r3, #4096
 919 0042 0A93     		str	r3, [sp, #40]
 390:Core/Src/main.c ****   {
 920              		.loc 1 390 3 is_stmt 1 view .LVU249
 390:Core/Src/main.c ****   {
 921              		.loc 1 390 7 is_stmt 0 view .LVU250
 922 0044 0AA9     		add	r1, sp, #40
 923 0046 1A48     		ldr	r0, .L59
 924 0048 FFF7FEFF 		bl	HAL_TIM_ConfigClockSource
 925              	.LVL41:
ARM GAS  C:\Users\pc\AppData\Local\Temp\ccXXeMaj.s 			page 34


 390:Core/Src/main.c ****   {
 926              		.loc 1 390 6 view .LVU251
 927 004c 30BB     		cbnz	r0, .L54
 394:Core/Src/main.c ****   {
 928              		.loc 1 394 3 is_stmt 1 view .LVU252
 394:Core/Src/main.c ****   {
 929              		.loc 1 394 7 is_stmt 0 view .LVU253
 930 004e 1848     		ldr	r0, .L59
 931 0050 FFF7FEFF 		bl	HAL_TIM_PWM_Init
 932              	.LVL42:
 394:Core/Src/main.c ****   {
 933              		.loc 1 394 6 view .LVU254
 934 0054 20BB     		cbnz	r0, .L55
 398:Core/Src/main.c ****   sMasterConfig.MasterSlaveMode = TIM_MASTERSLAVEMODE_DISABLE;
 935              		.loc 1 398 3 is_stmt 1 view .LVU255
 398:Core/Src/main.c ****   sMasterConfig.MasterSlaveMode = TIM_MASTERSLAVEMODE_DISABLE;
 936              		.loc 1 398 37 is_stmt 0 view .LVU256
 937 0056 0023     		movs	r3, #0
 938 0058 0893     		str	r3, [sp, #32]
 399:Core/Src/main.c ****   if (HAL_TIMEx_MasterConfigSynchronization(&htim2, &sMasterConfig) != HAL_OK)
 939              		.loc 1 399 3 is_stmt 1 view .LVU257
 399:Core/Src/main.c ****   if (HAL_TIMEx_MasterConfigSynchronization(&htim2, &sMasterConfig) != HAL_OK)
 940              		.loc 1 399 33 is_stmt 0 view .LVU258
 941 005a 0993     		str	r3, [sp, #36]
 400:Core/Src/main.c ****   {
 942              		.loc 1 400 3 is_stmt 1 view .LVU259
 400:Core/Src/main.c ****   {
 943              		.loc 1 400 7 is_stmt 0 view .LVU260
 944 005c 08A9     		add	r1, sp, #32
 945 005e 1448     		ldr	r0, .L59
 946 0060 FFF7FEFF 		bl	HAL_TIMEx_MasterConfigSynchronization
 947              	.LVL43:
 400:Core/Src/main.c ****   {
 948              		.loc 1 400 6 view .LVU261
 949 0064 F0B9     		cbnz	r0, .L56
 404:Core/Src/main.c ****   sConfigOC.Pulse = 0;
 950              		.loc 1 404 3 is_stmt 1 view .LVU262
 404:Core/Src/main.c ****   sConfigOC.Pulse = 0;
 951              		.loc 1 404 20 is_stmt 0 view .LVU263
 952 0066 6023     		movs	r3, #96
 953 0068 0193     		str	r3, [sp, #4]
 405:Core/Src/main.c ****   sConfigOC.OCPolarity = TIM_OCPOLARITY_HIGH;
 954              		.loc 1 405 3 is_stmt 1 view .LVU264
 405:Core/Src/main.c ****   sConfigOC.OCPolarity = TIM_OCPOLARITY_HIGH;
 955              		.loc 1 405 19 is_stmt 0 view .LVU265
 956 006a 0023     		movs	r3, #0
 957 006c 0293     		str	r3, [sp, #8]
 406:Core/Src/main.c ****   sConfigOC.OCFastMode = TIM_OCFAST_DISABLE;
 958              		.loc 1 406 3 is_stmt 1 view .LVU266
 406:Core/Src/main.c ****   sConfigOC.OCFastMode = TIM_OCFAST_DISABLE;
 959              		.loc 1 406 24 is_stmt 0 view .LVU267
 960 006e 0393     		str	r3, [sp, #12]
 407:Core/Src/main.c ****   if (HAL_TIM_PWM_ConfigChannel(&htim2, &sConfigOC, TIM_CHANNEL_2) != HAL_OK)
 961              		.loc 1 407 3 is_stmt 1 view .LVU268
 407:Core/Src/main.c ****   if (HAL_TIM_PWM_ConfigChannel(&htim2, &sConfigOC, TIM_CHANNEL_2) != HAL_OK)
 962              		.loc 1 407 24 is_stmt 0 view .LVU269
 963 0070 0593     		str	r3, [sp, #20]
ARM GAS  C:\Users\pc\AppData\Local\Temp\ccXXeMaj.s 			page 35


 408:Core/Src/main.c ****   {
 964              		.loc 1 408 3 is_stmt 1 view .LVU270
 408:Core/Src/main.c ****   {
 965              		.loc 1 408 7 is_stmt 0 view .LVU271
 966 0072 0422     		movs	r2, #4
 967 0074 0DEB0201 		add	r1, sp, r2
 968 0078 0D48     		ldr	r0, .L59
 969 007a FFF7FEFF 		bl	HAL_TIM_PWM_ConfigChannel
 970              	.LVL44:
 408:Core/Src/main.c ****   {
 971              		.loc 1 408 6 view .LVU272
 972 007e 98B9     		cbnz	r0, .L57
 412:Core/Src/main.c ****   {
 973              		.loc 1 412 3 is_stmt 1 view .LVU273
 412:Core/Src/main.c ****   {
 974              		.loc 1 412 7 is_stmt 0 view .LVU274
 975 0080 0822     		movs	r2, #8
 976 0082 01A9     		add	r1, sp, #4
 977 0084 0A48     		ldr	r0, .L59
 978 0086 FFF7FEFF 		bl	HAL_TIM_PWM_ConfigChannel
 979              	.LVL45:
 412:Core/Src/main.c ****   {
 980              		.loc 1 412 6 view .LVU275
 981 008a 78B9     		cbnz	r0, .L58
 419:Core/Src/main.c **** 
 982              		.loc 1 419 3 is_stmt 1 view .LVU276
 983 008c 0848     		ldr	r0, .L59
 984 008e FFF7FEFF 		bl	HAL_TIM_MspPostInit
 985              	.LVL46:
 421:Core/Src/main.c **** 
 986              		.loc 1 421 1 is_stmt 0 view .LVU277
 987 0092 0FB0     		add	sp, sp, #60
 988              	.LCFI18:
 989              		.cfi_remember_state
 990              		.cfi_def_cfa_offset 4
 991              		@ sp needed
 992 0094 5DF804FB 		ldr	pc, [sp], #4
 993              	.L53:
 994              	.LCFI19:
 995              		.cfi_restore_state
 387:Core/Src/main.c ****   }
 996              		.loc 1 387 5 is_stmt 1 view .LVU278
 997 0098 FFF7FEFF 		bl	Error_Handler
 998              	.LVL47:
 999              	.L54:
 392:Core/Src/main.c ****   }
 1000              		.loc 1 392 5 view .LVU279
 1001 009c FFF7FEFF 		bl	Error_Handler
 1002              	.LVL48:
 1003              	.L55:
 396:Core/Src/main.c ****   }
 1004              		.loc 1 396 5 view .LVU280
 1005 00a0 FFF7FEFF 		bl	Error_Handler
 1006              	.LVL49:
 1007              	.L56:
 402:Core/Src/main.c ****   }
 1008              		.loc 1 402 5 view .LVU281
ARM GAS  C:\Users\pc\AppData\Local\Temp\ccXXeMaj.s 			page 36


 1009 00a4 FFF7FEFF 		bl	Error_Handler
 1010              	.LVL50:
 1011              	.L57:
 410:Core/Src/main.c ****   }
 1012              		.loc 1 410 5 view .LVU282
 1013 00a8 FFF7FEFF 		bl	Error_Handler
 1014              	.LVL51:
 1015              	.L58:
 414:Core/Src/main.c ****   }
 1016              		.loc 1 414 5 view .LVU283
 1017 00ac FFF7FEFF 		bl	Error_Handler
 1018              	.LVL52:
 1019              	.L60:
 1020              		.align	2
 1021              	.L59:
 1022 00b0 00000000 		.word	htim2
 1023              		.cfi_endproc
 1024              	.LFE135:
 1026              		.section	.text.MX_TIM3_Init,"ax",%progbits
 1027              		.align	1
 1028              		.syntax unified
 1029              		.thumb
 1030              		.thumb_func
 1032              	MX_TIM3_Init:
 1033              	.LFB136:
 429:Core/Src/main.c **** 
 1034              		.loc 1 429 1 view -0
 1035              		.cfi_startproc
 1036              		@ args = 0, pretend = 0, frame = 56
 1037              		@ frame_needed = 0, uses_anonymous_args = 0
 1038 0000 00B5     		push	{lr}
 1039              	.LCFI20:
 1040              		.cfi_def_cfa_offset 4
 1041              		.cfi_offset 14, -4
 1042 0002 8FB0     		sub	sp, sp, #60
 1043              	.LCFI21:
 1044              		.cfi_def_cfa_offset 64
 435:Core/Src/main.c ****   TIM_MasterConfigTypeDef sMasterConfig = {0};
 1045              		.loc 1 435 3 view .LVU285
 435:Core/Src/main.c ****   TIM_MasterConfigTypeDef sMasterConfig = {0};
 1046              		.loc 1 435 26 is_stmt 0 view .LVU286
 1047 0004 0023     		movs	r3, #0
 1048 0006 0A93     		str	r3, [sp, #40]
 1049 0008 0B93     		str	r3, [sp, #44]
 1050 000a 0C93     		str	r3, [sp, #48]
 1051 000c 0D93     		str	r3, [sp, #52]
 436:Core/Src/main.c ****   TIM_OC_InitTypeDef sConfigOC = {0};
 1052              		.loc 1 436 3 is_stmt 1 view .LVU287
 436:Core/Src/main.c ****   TIM_OC_InitTypeDef sConfigOC = {0};
 1053              		.loc 1 436 27 is_stmt 0 view .LVU288
 1054 000e 0893     		str	r3, [sp, #32]
 1055 0010 0993     		str	r3, [sp, #36]
 437:Core/Src/main.c **** 
 1056              		.loc 1 437 3 is_stmt 1 view .LVU289
 437:Core/Src/main.c **** 
 1057              		.loc 1 437 22 is_stmt 0 view .LVU290
 1058 0012 0193     		str	r3, [sp, #4]
ARM GAS  C:\Users\pc\AppData\Local\Temp\ccXXeMaj.s 			page 37


 1059 0014 0293     		str	r3, [sp, #8]
 1060 0016 0393     		str	r3, [sp, #12]
 1061 0018 0493     		str	r3, [sp, #16]
 1062 001a 0593     		str	r3, [sp, #20]
 1063 001c 0693     		str	r3, [sp, #24]
 1064 001e 0793     		str	r3, [sp, #28]
 442:Core/Src/main.c ****   htim3.Init.Prescaler = 90-1;
 1065              		.loc 1 442 3 is_stmt 1 view .LVU291
 442:Core/Src/main.c ****   htim3.Init.Prescaler = 90-1;
 1066              		.loc 1 442 18 is_stmt 0 view .LVU292
 1067 0020 2248     		ldr	r0, .L75
 1068 0022 234A     		ldr	r2, .L75+4
 1069 0024 0260     		str	r2, [r0]
 443:Core/Src/main.c ****   htim3.Init.CounterMode = TIM_COUNTERMODE_UP;
 1070              		.loc 1 443 3 is_stmt 1 view .LVU293
 443:Core/Src/main.c ****   htim3.Init.CounterMode = TIM_COUNTERMODE_UP;
 1071              		.loc 1 443 24 is_stmt 0 view .LVU294
 1072 0026 5922     		movs	r2, #89
 1073 0028 4260     		str	r2, [r0, #4]
 444:Core/Src/main.c ****   htim3.Init.Period = 20000-1;
 1074              		.loc 1 444 3 is_stmt 1 view .LVU295
 444:Core/Src/main.c ****   htim3.Init.Period = 20000-1;
 1075              		.loc 1 444 26 is_stmt 0 view .LVU296
 1076 002a 8360     		str	r3, [r0, #8]
 445:Core/Src/main.c ****   htim3.Init.ClockDivision = TIM_CLOCKDIVISION_DIV1;
 1077              		.loc 1 445 3 is_stmt 1 view .LVU297
 445:Core/Src/main.c ****   htim3.Init.ClockDivision = TIM_CLOCKDIVISION_DIV1;
 1078              		.loc 1 445 21 is_stmt 0 view .LVU298
 1079 002c 44F61F62 		movw	r2, #19999
 1080 0030 C260     		str	r2, [r0, #12]
 446:Core/Src/main.c ****   htim3.Init.AutoReloadPreload = TIM_AUTORELOAD_PRELOAD_DISABLE;
 1081              		.loc 1 446 3 is_stmt 1 view .LVU299
 446:Core/Src/main.c ****   htim3.Init.AutoReloadPreload = TIM_AUTORELOAD_PRELOAD_DISABLE;
 1082              		.loc 1 446 28 is_stmt 0 view .LVU300
 1083 0032 0361     		str	r3, [r0, #16]
 447:Core/Src/main.c ****   if (HAL_TIM_Base_Init(&htim3) != HAL_OK)
 1084              		.loc 1 447 3 is_stmt 1 view .LVU301
 447:Core/Src/main.c ****   if (HAL_TIM_Base_Init(&htim3) != HAL_OK)
 1085              		.loc 1 447 32 is_stmt 0 view .LVU302
 1086 0034 8361     		str	r3, [r0, #24]
 448:Core/Src/main.c ****   {
 1087              		.loc 1 448 3 is_stmt 1 view .LVU303
 448:Core/Src/main.c ****   {
 1088              		.loc 1 448 7 is_stmt 0 view .LVU304
 1089 0036 FFF7FEFF 		bl	HAL_TIM_Base_Init
 1090              	.LVL53:
 448:Core/Src/main.c ****   {
 1091              		.loc 1 448 6 view .LVU305
 1092 003a 58BB     		cbnz	r0, .L69
 452:Core/Src/main.c ****   if (HAL_TIM_ConfigClockSource(&htim3, &sClockSourceConfig) != HAL_OK)
 1093              		.loc 1 452 3 is_stmt 1 view .LVU306
 452:Core/Src/main.c ****   if (HAL_TIM_ConfigClockSource(&htim3, &sClockSourceConfig) != HAL_OK)
 1094              		.loc 1 452 34 is_stmt 0 view .LVU307
 1095 003c 4FF48053 		mov	r3, #4096
 1096 0040 0A93     		str	r3, [sp, #40]
 453:Core/Src/main.c ****   {
 1097              		.loc 1 453 3 is_stmt 1 view .LVU308
ARM GAS  C:\Users\pc\AppData\Local\Temp\ccXXeMaj.s 			page 38


 453:Core/Src/main.c ****   {
 1098              		.loc 1 453 7 is_stmt 0 view .LVU309
 1099 0042 0AA9     		add	r1, sp, #40
 1100 0044 1948     		ldr	r0, .L75
 1101 0046 FFF7FEFF 		bl	HAL_TIM_ConfigClockSource
 1102              	.LVL54:
 453:Core/Src/main.c ****   {
 1103              		.loc 1 453 6 view .LVU310
 1104 004a 28BB     		cbnz	r0, .L70
 457:Core/Src/main.c ****   {
 1105              		.loc 1 457 3 is_stmt 1 view .LVU311
 457:Core/Src/main.c ****   {
 1106              		.loc 1 457 7 is_stmt 0 view .LVU312
 1107 004c 1748     		ldr	r0, .L75
 1108 004e FFF7FEFF 		bl	HAL_TIM_PWM_Init
 1109              	.LVL55:
 457:Core/Src/main.c ****   {
 1110              		.loc 1 457 6 view .LVU313
 1111 0052 18BB     		cbnz	r0, .L71
 461:Core/Src/main.c ****   sMasterConfig.MasterSlaveMode = TIM_MASTERSLAVEMODE_DISABLE;
 1112              		.loc 1 461 3 is_stmt 1 view .LVU314
 461:Core/Src/main.c ****   sMasterConfig.MasterSlaveMode = TIM_MASTERSLAVEMODE_DISABLE;
 1113              		.loc 1 461 37 is_stmt 0 view .LVU315
 1114 0054 0023     		movs	r3, #0
 1115 0056 0893     		str	r3, [sp, #32]
 462:Core/Src/main.c ****   if (HAL_TIMEx_MasterConfigSynchronization(&htim3, &sMasterConfig) != HAL_OK)
 1116              		.loc 1 462 3 is_stmt 1 view .LVU316
 462:Core/Src/main.c ****   if (HAL_TIMEx_MasterConfigSynchronization(&htim3, &sMasterConfig) != HAL_OK)
 1117              		.loc 1 462 33 is_stmt 0 view .LVU317
 1118 0058 0993     		str	r3, [sp, #36]
 463:Core/Src/main.c ****   {
 1119              		.loc 1 463 3 is_stmt 1 view .LVU318
 463:Core/Src/main.c ****   {
 1120              		.loc 1 463 7 is_stmt 0 view .LVU319
 1121 005a 08A9     		add	r1, sp, #32
 1122 005c 1348     		ldr	r0, .L75
 1123 005e FFF7FEFF 		bl	HAL_TIMEx_MasterConfigSynchronization
 1124              	.LVL56:
 463:Core/Src/main.c ****   {
 1125              		.loc 1 463 6 view .LVU320
 1126 0062 E8B9     		cbnz	r0, .L72
 467:Core/Src/main.c ****   sConfigOC.Pulse = 0;
 1127              		.loc 1 467 3 is_stmt 1 view .LVU321
 467:Core/Src/main.c ****   sConfigOC.Pulse = 0;
 1128              		.loc 1 467 20 is_stmt 0 view .LVU322
 1129 0064 6023     		movs	r3, #96
 1130 0066 0193     		str	r3, [sp, #4]
 468:Core/Src/main.c ****   sConfigOC.OCPolarity = TIM_OCPOLARITY_HIGH;
 1131              		.loc 1 468 3 is_stmt 1 view .LVU323
 468:Core/Src/main.c ****   sConfigOC.OCPolarity = TIM_OCPOLARITY_HIGH;
 1132              		.loc 1 468 19 is_stmt 0 view .LVU324
 1133 0068 0022     		movs	r2, #0
 1134 006a 0292     		str	r2, [sp, #8]
 469:Core/Src/main.c ****   sConfigOC.OCFastMode = TIM_OCFAST_DISABLE;
 1135              		.loc 1 469 3 is_stmt 1 view .LVU325
 469:Core/Src/main.c ****   sConfigOC.OCFastMode = TIM_OCFAST_DISABLE;
 1136              		.loc 1 469 24 is_stmt 0 view .LVU326
ARM GAS  C:\Users\pc\AppData\Local\Temp\ccXXeMaj.s 			page 39


 1137 006c 0392     		str	r2, [sp, #12]
 470:Core/Src/main.c ****   if (HAL_TIM_PWM_ConfigChannel(&htim3, &sConfigOC, TIM_CHANNEL_1) != HAL_OK)
 1138              		.loc 1 470 3 is_stmt 1 view .LVU327
 470:Core/Src/main.c ****   if (HAL_TIM_PWM_ConfigChannel(&htim3, &sConfigOC, TIM_CHANNEL_1) != HAL_OK)
 1139              		.loc 1 470 24 is_stmt 0 view .LVU328
 1140 006e 0592     		str	r2, [sp, #20]
 471:Core/Src/main.c ****   {
 1141              		.loc 1 471 3 is_stmt 1 view .LVU329
 471:Core/Src/main.c ****   {
 1142              		.loc 1 471 7 is_stmt 0 view .LVU330
 1143 0070 01A9     		add	r1, sp, #4
 1144 0072 0E48     		ldr	r0, .L75
 1145 0074 FFF7FEFF 		bl	HAL_TIM_PWM_ConfigChannel
 1146              	.LVL57:
 471:Core/Src/main.c ****   {
 1147              		.loc 1 471 6 view .LVU331
 1148 0078 A0B9     		cbnz	r0, .L73
 475:Core/Src/main.c ****   {
 1149              		.loc 1 475 3 is_stmt 1 view .LVU332
 475:Core/Src/main.c ****   {
 1150              		.loc 1 475 7 is_stmt 0 view .LVU333
 1151 007a 0422     		movs	r2, #4
 1152 007c 0DEB0201 		add	r1, sp, r2
 1153 0080 0A48     		ldr	r0, .L75
 1154 0082 FFF7FEFF 		bl	HAL_TIM_PWM_ConfigChannel
 1155              	.LVL58:
 475:Core/Src/main.c ****   {
 1156              		.loc 1 475 6 view .LVU334
 1157 0086 78B9     		cbnz	r0, .L74
 482:Core/Src/main.c **** 
 1158              		.loc 1 482 3 is_stmt 1 view .LVU335
 1159 0088 0848     		ldr	r0, .L75
 1160 008a FFF7FEFF 		bl	HAL_TIM_MspPostInit
 1161              	.LVL59:
 484:Core/Src/main.c **** 
 1162              		.loc 1 484 1 is_stmt 0 view .LVU336
 1163 008e 0FB0     		add	sp, sp, #60
 1164              	.LCFI22:
 1165              		.cfi_remember_state
 1166              		.cfi_def_cfa_offset 4
 1167              		@ sp needed
 1168 0090 5DF804FB 		ldr	pc, [sp], #4
 1169              	.L69:
 1170              	.LCFI23:
 1171              		.cfi_restore_state
 450:Core/Src/main.c ****   }
 1172              		.loc 1 450 5 is_stmt 1 view .LVU337
 1173 0094 FFF7FEFF 		bl	Error_Handler
 1174              	.LVL60:
 1175              	.L70:
 455:Core/Src/main.c ****   }
 1176              		.loc 1 455 5 view .LVU338
 1177 0098 FFF7FEFF 		bl	Error_Handler
 1178              	.LVL61:
 1179              	.L71:
 459:Core/Src/main.c ****   }
 1180              		.loc 1 459 5 view .LVU339
ARM GAS  C:\Users\pc\AppData\Local\Temp\ccXXeMaj.s 			page 40


 1181 009c FFF7FEFF 		bl	Error_Handler
 1182              	.LVL62:
 1183              	.L72:
 465:Core/Src/main.c ****   }
 1184              		.loc 1 465 5 view .LVU340
 1185 00a0 FFF7FEFF 		bl	Error_Handler
 1186              	.LVL63:
 1187              	.L73:
 473:Core/Src/main.c ****   }
 1188              		.loc 1 473 5 view .LVU341
 1189 00a4 FFF7FEFF 		bl	Error_Handler
 1190              	.LVL64:
 1191              	.L74:
 477:Core/Src/main.c ****   }
 1192              		.loc 1 477 5 view .LVU342
 1193 00a8 FFF7FEFF 		bl	Error_Handler
 1194              	.LVL65:
 1195              	.L76:
 1196              		.align	2
 1197              	.L75:
 1198 00ac 00000000 		.word	htim3
 1199 00b0 00040040 		.word	1073742848
 1200              		.cfi_endproc
 1201              	.LFE136:
 1203              		.section	.text.SystemClock_Config,"ax",%progbits
 1204              		.align	1
 1205              		.global	SystemClock_Config
 1206              		.syntax unified
 1207              		.thumb
 1208              		.thumb_func
 1210              	SystemClock_Config:
 1211              	.LFB133:
 278:Core/Src/main.c ****   RCC_OscInitTypeDef RCC_OscInitStruct = {0};
 1212              		.loc 1 278 1 view -0
 1213              		.cfi_startproc
 1214              		@ args = 0, pretend = 0, frame = 80
 1215              		@ frame_needed = 0, uses_anonymous_args = 0
 1216 0000 00B5     		push	{lr}
 1217              	.LCFI24:
 1218              		.cfi_def_cfa_offset 4
 1219              		.cfi_offset 14, -4
 1220 0002 95B0     		sub	sp, sp, #84
 1221              	.LCFI25:
 1222              		.cfi_def_cfa_offset 88
 279:Core/Src/main.c ****   RCC_ClkInitTypeDef RCC_ClkInitStruct = {0};
 1223              		.loc 1 279 3 view .LVU344
 279:Core/Src/main.c ****   RCC_ClkInitTypeDef RCC_ClkInitStruct = {0};
 1224              		.loc 1 279 22 is_stmt 0 view .LVU345
 1225 0004 3422     		movs	r2, #52
 1226 0006 0021     		movs	r1, #0
 1227 0008 07A8     		add	r0, sp, #28
 1228 000a FFF7FEFF 		bl	memset
 1229              	.LVL66:
 280:Core/Src/main.c **** 
 1230              		.loc 1 280 3 is_stmt 1 view .LVU346
 280:Core/Src/main.c **** 
 1231              		.loc 1 280 22 is_stmt 0 view .LVU347
ARM GAS  C:\Users\pc\AppData\Local\Temp\ccXXeMaj.s 			page 41


 1232 000e 0023     		movs	r3, #0
 1233 0010 0293     		str	r3, [sp, #8]
 1234 0012 0393     		str	r3, [sp, #12]
 1235 0014 0493     		str	r3, [sp, #16]
 1236 0016 0593     		str	r3, [sp, #20]
 1237 0018 0693     		str	r3, [sp, #24]
 284:Core/Src/main.c ****   __HAL_PWR_VOLTAGESCALING_CONFIG(PWR_REGULATOR_VOLTAGE_SCALE1);
 1238              		.loc 1 284 3 is_stmt 1 view .LVU348
 1239              	.LBB11:
 284:Core/Src/main.c ****   __HAL_PWR_VOLTAGESCALING_CONFIG(PWR_REGULATOR_VOLTAGE_SCALE1);
 1240              		.loc 1 284 3 view .LVU349
 1241 001a 0093     		str	r3, [sp]
 284:Core/Src/main.c ****   __HAL_PWR_VOLTAGESCALING_CONFIG(PWR_REGULATOR_VOLTAGE_SCALE1);
 1242              		.loc 1 284 3 view .LVU350
 1243 001c 234A     		ldr	r2, .L85
 1244 001e 116C     		ldr	r1, [r2, #64]
 1245 0020 41F08051 		orr	r1, r1, #268435456
 1246 0024 1164     		str	r1, [r2, #64]
 284:Core/Src/main.c ****   __HAL_PWR_VOLTAGESCALING_CONFIG(PWR_REGULATOR_VOLTAGE_SCALE1);
 1247              		.loc 1 284 3 view .LVU351
 1248 0026 126C     		ldr	r2, [r2, #64]
 1249 0028 02F08052 		and	r2, r2, #268435456
 1250 002c 0092     		str	r2, [sp]
 284:Core/Src/main.c ****   __HAL_PWR_VOLTAGESCALING_CONFIG(PWR_REGULATOR_VOLTAGE_SCALE1);
 1251              		.loc 1 284 3 view .LVU352
 1252 002e 009A     		ldr	r2, [sp]
 1253              	.LBE11:
 284:Core/Src/main.c ****   __HAL_PWR_VOLTAGESCALING_CONFIG(PWR_REGULATOR_VOLTAGE_SCALE1);
 1254              		.loc 1 284 3 view .LVU353
 285:Core/Src/main.c **** 
 1255              		.loc 1 285 3 view .LVU354
 1256              	.LBB12:
 285:Core/Src/main.c **** 
 1257              		.loc 1 285 3 view .LVU355
 1258 0030 0193     		str	r3, [sp, #4]
 285:Core/Src/main.c **** 
 1259              		.loc 1 285 3 view .LVU356
 1260 0032 1F4B     		ldr	r3, .L85+4
 1261 0034 1A68     		ldr	r2, [r3]
 1262 0036 42F44042 		orr	r2, r2, #49152
 1263 003a 1A60     		str	r2, [r3]
 285:Core/Src/main.c **** 
 1264              		.loc 1 285 3 view .LVU357
 1265 003c 1B68     		ldr	r3, [r3]
 1266 003e 03F44043 		and	r3, r3, #49152
 1267 0042 0193     		str	r3, [sp, #4]
 285:Core/Src/main.c **** 
 1268              		.loc 1 285 3 view .LVU358
 1269 0044 019B     		ldr	r3, [sp, #4]
 1270              	.LBE12:
 285:Core/Src/main.c **** 
 1271              		.loc 1 285 3 view .LVU359
 290:Core/Src/main.c ****   RCC_OscInitStruct.HSEState = RCC_HSE_ON;
 1272              		.loc 1 290 3 view .LVU360
 290:Core/Src/main.c ****   RCC_OscInitStruct.HSEState = RCC_HSE_ON;
 1273              		.loc 1 290 36 is_stmt 0 view .LVU361
 1274 0046 0123     		movs	r3, #1
ARM GAS  C:\Users\pc\AppData\Local\Temp\ccXXeMaj.s 			page 42


 1275 0048 0793     		str	r3, [sp, #28]
 291:Core/Src/main.c ****   RCC_OscInitStruct.PLL.PLLState = RCC_PLL_ON;
 1276              		.loc 1 291 3 is_stmt 1 view .LVU362
 291:Core/Src/main.c ****   RCC_OscInitStruct.PLL.PLLState = RCC_PLL_ON;
 1277              		.loc 1 291 30 is_stmt 0 view .LVU363
 1278 004a 4FF48033 		mov	r3, #65536
 1279 004e 0893     		str	r3, [sp, #32]
 292:Core/Src/main.c ****   RCC_OscInitStruct.PLL.PLLSource = RCC_PLLSOURCE_HSE;
 1280              		.loc 1 292 3 is_stmt 1 view .LVU364
 292:Core/Src/main.c ****   RCC_OscInitStruct.PLL.PLLSource = RCC_PLLSOURCE_HSE;
 1281              		.loc 1 292 34 is_stmt 0 view .LVU365
 1282 0050 0223     		movs	r3, #2
 1283 0052 0D93     		str	r3, [sp, #52]
 293:Core/Src/main.c ****   RCC_OscInitStruct.PLL.PLLM = 4;
 1284              		.loc 1 293 3 is_stmt 1 view .LVU366
 293:Core/Src/main.c ****   RCC_OscInitStruct.PLL.PLLM = 4;
 1285              		.loc 1 293 35 is_stmt 0 view .LVU367
 1286 0054 4FF48002 		mov	r2, #4194304
 1287 0058 0E92     		str	r2, [sp, #56]
 294:Core/Src/main.c ****   RCC_OscInitStruct.PLL.PLLN = 180;
 1288              		.loc 1 294 3 is_stmt 1 view .LVU368
 294:Core/Src/main.c ****   RCC_OscInitStruct.PLL.PLLN = 180;
 1289              		.loc 1 294 30 is_stmt 0 view .LVU369
 1290 005a 0422     		movs	r2, #4
 1291 005c 0F92     		str	r2, [sp, #60]
 295:Core/Src/main.c ****   RCC_OscInitStruct.PLL.PLLP = RCC_PLLP_DIV2;
 1292              		.loc 1 295 3 is_stmt 1 view .LVU370
 295:Core/Src/main.c ****   RCC_OscInitStruct.PLL.PLLP = RCC_PLLP_DIV2;
 1293              		.loc 1 295 30 is_stmt 0 view .LVU371
 1294 005e B422     		movs	r2, #180
 1295 0060 1092     		str	r2, [sp, #64]
 296:Core/Src/main.c ****   RCC_OscInitStruct.PLL.PLLQ = 2;
 1296              		.loc 1 296 3 is_stmt 1 view .LVU372
 296:Core/Src/main.c ****   RCC_OscInitStruct.PLL.PLLQ = 2;
 1297              		.loc 1 296 30 is_stmt 0 view .LVU373
 1298 0062 1193     		str	r3, [sp, #68]
 297:Core/Src/main.c ****   RCC_OscInitStruct.PLL.PLLR = 2;
 1299              		.loc 1 297 3 is_stmt 1 view .LVU374
 297:Core/Src/main.c ****   RCC_OscInitStruct.PLL.PLLR = 2;
 1300              		.loc 1 297 30 is_stmt 0 view .LVU375
 1301 0064 1293     		str	r3, [sp, #72]
 298:Core/Src/main.c ****   if (HAL_RCC_OscConfig(&RCC_OscInitStruct) != HAL_OK)
 1302              		.loc 1 298 3 is_stmt 1 view .LVU376
 298:Core/Src/main.c ****   if (HAL_RCC_OscConfig(&RCC_OscInitStruct) != HAL_OK)
 1303              		.loc 1 298 30 is_stmt 0 view .LVU377
 1304 0066 1393     		str	r3, [sp, #76]
 299:Core/Src/main.c ****   {
 1305              		.loc 1 299 3 is_stmt 1 view .LVU378
 299:Core/Src/main.c ****   {
 1306              		.loc 1 299 7 is_stmt 0 view .LVU379
 1307 0068 07A8     		add	r0, sp, #28
 1308 006a FFF7FEFF 		bl	HAL_RCC_OscConfig
 1309              	.LVL67:
 299:Core/Src/main.c ****   {
 1310              		.loc 1 299 6 view .LVU380
 1311 006e B0B9     		cbnz	r0, .L82
 306:Core/Src/main.c ****   {
ARM GAS  C:\Users\pc\AppData\Local\Temp\ccXXeMaj.s 			page 43


 1312              		.loc 1 306 3 is_stmt 1 view .LVU381
 306:Core/Src/main.c ****   {
 1313              		.loc 1 306 7 is_stmt 0 view .LVU382
 1314 0070 FFF7FEFF 		bl	HAL_PWREx_EnableOverDrive
 1315              	.LVL68:
 306:Core/Src/main.c ****   {
 1316              		.loc 1 306 6 view .LVU383
 1317 0074 A8B9     		cbnz	r0, .L83
 313:Core/Src/main.c ****                               |RCC_CLOCKTYPE_PCLK1|RCC_CLOCKTYPE_PCLK2;
 1318              		.loc 1 313 3 is_stmt 1 view .LVU384
 313:Core/Src/main.c ****                               |RCC_CLOCKTYPE_PCLK1|RCC_CLOCKTYPE_PCLK2;
 1319              		.loc 1 313 31 is_stmt 0 view .LVU385
 1320 0076 0F23     		movs	r3, #15
 1321 0078 0293     		str	r3, [sp, #8]
 315:Core/Src/main.c ****   RCC_ClkInitStruct.AHBCLKDivider = RCC_SYSCLK_DIV1;
 1322              		.loc 1 315 3 is_stmt 1 view .LVU386
 315:Core/Src/main.c ****   RCC_ClkInitStruct.AHBCLKDivider = RCC_SYSCLK_DIV1;
 1323              		.loc 1 315 34 is_stmt 0 view .LVU387
 1324 007a 0223     		movs	r3, #2
 1325 007c 0393     		str	r3, [sp, #12]
 316:Core/Src/main.c ****   RCC_ClkInitStruct.APB1CLKDivider = RCC_HCLK_DIV4;
 1326              		.loc 1 316 3 is_stmt 1 view .LVU388
 316:Core/Src/main.c ****   RCC_ClkInitStruct.APB1CLKDivider = RCC_HCLK_DIV4;
 1327              		.loc 1 316 35 is_stmt 0 view .LVU389
 1328 007e 0023     		movs	r3, #0
 1329 0080 0493     		str	r3, [sp, #16]
 317:Core/Src/main.c ****   RCC_ClkInitStruct.APB2CLKDivider = RCC_HCLK_DIV2;
 1330              		.loc 1 317 3 is_stmt 1 view .LVU390
 317:Core/Src/main.c ****   RCC_ClkInitStruct.APB2CLKDivider = RCC_HCLK_DIV2;
 1331              		.loc 1 317 36 is_stmt 0 view .LVU391
 1332 0082 4FF4A053 		mov	r3, #5120
 1333 0086 0593     		str	r3, [sp, #20]
 318:Core/Src/main.c **** 
 1334              		.loc 1 318 3 is_stmt 1 view .LVU392
 318:Core/Src/main.c **** 
 1335              		.loc 1 318 36 is_stmt 0 view .LVU393
 1336 0088 4FF48053 		mov	r3, #4096
 1337 008c 0693     		str	r3, [sp, #24]
 320:Core/Src/main.c ****   {
 1338              		.loc 1 320 3 is_stmt 1 view .LVU394
 320:Core/Src/main.c ****   {
 1339              		.loc 1 320 7 is_stmt 0 view .LVU395
 1340 008e 0521     		movs	r1, #5
 1341 0090 02A8     		add	r0, sp, #8
 1342 0092 FFF7FEFF 		bl	HAL_RCC_ClockConfig
 1343              	.LVL69:
 320:Core/Src/main.c ****   {
 1344              		.loc 1 320 6 view .LVU396
 1345 0096 30B9     		cbnz	r0, .L84
 324:Core/Src/main.c **** 
 1346              		.loc 1 324 1 view .LVU397
 1347 0098 15B0     		add	sp, sp, #84
 1348              	.LCFI26:
 1349              		.cfi_remember_state
 1350              		.cfi_def_cfa_offset 4
 1351              		@ sp needed
 1352 009a 5DF804FB 		ldr	pc, [sp], #4
ARM GAS  C:\Users\pc\AppData\Local\Temp\ccXXeMaj.s 			page 44


 1353              	.L82:
 1354              	.LCFI27:
 1355              		.cfi_restore_state
 301:Core/Src/main.c ****   }
 1356              		.loc 1 301 5 is_stmt 1 view .LVU398
 1357 009e FFF7FEFF 		bl	Error_Handler
 1358              	.LVL70:
 1359              	.L83:
 308:Core/Src/main.c ****   }
 1360              		.loc 1 308 5 view .LVU399
 1361 00a2 FFF7FEFF 		bl	Error_Handler
 1362              	.LVL71:
 1363              	.L84:
 322:Core/Src/main.c ****   }
 1364              		.loc 1 322 5 view .LVU400
 1365 00a6 FFF7FEFF 		bl	Error_Handler
 1366              	.LVL72:
 1367              	.L86:
 1368 00aa 00BF     		.align	2
 1369              	.L85:
 1370 00ac 00380240 		.word	1073887232
 1371 00b0 00700040 		.word	1073770496
 1372              		.cfi_endproc
 1373              	.LFE133:
 1375              		.global	__aeabi_d2f
 1376              		.section	.rodata.main.str1.4,"aMS",%progbits,1
 1377              		.align	2
 1378              	.LC0:
 1379 0000 526F6C6C 		.ascii	"Roll_Input: %.2f \000"
 1379      5F496E70 
 1379      75743A20 
 1379      252E3266 
 1379      2000
 1380 0012 0000     		.align	2
 1381              	.LC1:
 1382 0014 50697463 		.ascii	"Pitch_Input: %.2f\012\000"
 1382      685F496E 
 1382      7075743A 
 1382      20252E32 
 1382      660A00
 1383              		.section	.text.main,"ax",%progbits
 1384              		.align	1
 1385              		.global	main
 1386              		.syntax unified
 1387              		.thumb
 1388              		.thumb_func
 1390              	main:
 1391              	.LFB132:
 183:Core/Src/main.c ****   /* USER CODE BEGIN 1 */
 1392              		.loc 1 183 1 view -0
 1393              		.cfi_startproc
 1394              		@ args = 0, pretend = 0, frame = 0
 1395              		@ frame_needed = 0, uses_anonymous_args = 0
 1396 0000 2DE9F843 		push	{r3, r4, r5, r6, r7, r8, r9, lr}
 1397              	.LCFI28:
 1398              		.cfi_def_cfa_offset 32
 1399              		.cfi_offset 3, -32
ARM GAS  C:\Users\pc\AppData\Local\Temp\ccXXeMaj.s 			page 45


 1400              		.cfi_offset 4, -28
 1401              		.cfi_offset 5, -24
 1402              		.cfi_offset 6, -20
 1403              		.cfi_offset 7, -16
 1404              		.cfi_offset 8, -12
 1405              		.cfi_offset 9, -8
 1406              		.cfi_offset 14, -4
 1407 0004 2DED048B 		vpush.64	{d8, d9}
 1408              	.LCFI29:
 1409              		.cfi_def_cfa_offset 48
 1410              		.cfi_offset 80, -48
 1411              		.cfi_offset 81, -44
 1412              		.cfi_offset 82, -40
 1413              		.cfi_offset 83, -36
 191:Core/Src/main.c **** 
 1414              		.loc 1 191 3 view .LVU402
 1415 0008 FFF7FEFF 		bl	HAL_Init
 1416              	.LVL73:
 198:Core/Src/main.c **** 
 1417              		.loc 1 198 3 view .LVU403
 1418 000c FFF7FEFF 		bl	SystemClock_Config
 1419              	.LVL74:
 205:Core/Src/main.c ****   MX_DMA_Init();
 1420              		.loc 1 205 3 view .LVU404
 1421 0010 FFF7FEFF 		bl	MX_GPIO_Init
 1422              	.LVL75:
 206:Core/Src/main.c ****   MX_I2C1_Init();
 1423              		.loc 1 206 3 view .LVU405
 1424 0014 FFF7FEFF 		bl	MX_DMA_Init
 1425              	.LVL76:
 207:Core/Src/main.c ****   MX_USART1_UART_Init();
 1426              		.loc 1 207 3 view .LVU406
 1427 0018 FFF7FEFF 		bl	MX_I2C1_Init
 1428              	.LVL77:
 208:Core/Src/main.c ****   MX_USART2_UART_Init();
 1429              		.loc 1 208 3 view .LVU407
 1430 001c FFF7FEFF 		bl	MX_USART1_UART_Init
 1431              	.LVL78:
 209:Core/Src/main.c ****   MX_TIM2_Init();
 1432              		.loc 1 209 3 view .LVU408
 1433 0020 FFF7FEFF 		bl	MX_USART2_UART_Init
 1434              	.LVL79:
 210:Core/Src/main.c ****   MX_TIM3_Init();
 1435              		.loc 1 210 3 view .LVU409
 1436 0024 FFF7FEFF 		bl	MX_TIM2_Init
 1437              	.LVL80:
 211:Core/Src/main.c ****   /* USER CODE BEGIN 2 */
 1438              		.loc 1 211 3 view .LVU410
 1439 0028 FFF7FEFF 		bl	MX_TIM3_Init
 1440              	.LVL81:
 213:Core/Src/main.c ****   BMP180_Init(&hi2c1);
 1441              		.loc 1 213 3 view .LVU411
 1442 002c FFF7FEFF 		bl	MPU6050_Init
 1443              	.LVL82:
 214:Core/Src/main.c **** 	BMP180_SetOversampling(BMP180_ULTRA);
 1444              		.loc 1 214 3 view .LVU412
 1445 0030 8348     		ldr	r0, .L92+8
ARM GAS  C:\Users\pc\AppData\Local\Temp\ccXXeMaj.s 			page 46


 1446 0032 FFF7FEFF 		bl	BMP180_Init
 1447              	.LVL83:
 215:Core/Src/main.c ****   BMP180_UpdateCalibrationData();
 1448              		.loc 1 215 2 view .LVU413
 1449 0036 0320     		movs	r0, #3
 1450 0038 FFF7FEFF 		bl	BMP180_SetOversampling
 1451              	.LVL84:
 216:Core/Src/main.c ****   
 1452              		.loc 1 216 3 view .LVU414
 1453 003c FFF7FEFF 		bl	BMP180_UpdateCalibrationData
 1454              	.LVL85:
 218:Core/Src/main.c ****   {
 1455              		.loc 1 218 3 view .LVU415
 1456              	.LBB13:
 218:Core/Src/main.c ****   {
 1457              		.loc 1 218 7 view .LVU416
 218:Core/Src/main.c ****   {
 1458              		.loc 1 218 11 is_stmt 0 view .LVU417
 1459 0040 0025     		movs	r5, #0
 218:Core/Src/main.c ****   {
 1460              		.loc 1 218 3 view .LVU418
 1461 0042 1FE0     		b	.L88
 1462              	.LVL86:
 1463              	.L89:
 220:Core/Src/main.c ****       IMU.Gx_Callib+=IMU.Gx;
 1464              		.loc 1 220 7 is_stmt 1 discriminator 3 view .LVU419
 1465 0044 7F4C     		ldr	r4, .L92+12
 1466 0046 2046     		mov	r0, r4
 1467 0048 FFF7FEFF 		bl	MPU6050_Read
 1468              	.LVL87:
 221:Core/Src/main.c ****       IMU.Gy_Callib+=IMU.Gy;
 1469              		.loc 1 221 7 discriminator 3 view .LVU420
 221:Core/Src/main.c ****       IMU.Gy_Callib+=IMU.Gy;
 1470              		.loc 1 221 10 is_stmt 0 discriminator 3 view .LVU421
 1471 004c D4ED037A 		vldr.32	s15, [r4, #12]
 221:Core/Src/main.c ****       IMU.Gy_Callib+=IMU.Gy;
 1472              		.loc 1 221 25 discriminator 3 view .LVU422
 1473 0050 94ED007A 		vldr.32	s14, [r4]
 221:Core/Src/main.c ****       IMU.Gy_Callib+=IMU.Gy;
 1474              		.loc 1 221 20 discriminator 3 view .LVU423
 1475 0054 77EE877A 		vadd.f32	s15, s15, s14
 1476 0058 C4ED037A 		vstr.32	s15, [r4, #12]
 222:Core/Src/main.c ****       IMU.Gz_Callib+=IMU.Gz;
 1477              		.loc 1 222 7 is_stmt 1 discriminator 3 view .LVU424
 222:Core/Src/main.c ****       IMU.Gz_Callib+=IMU.Gz;
 1478              		.loc 1 222 10 is_stmt 0 discriminator 3 view .LVU425
 1479 005c D4ED047A 		vldr.32	s15, [r4, #16]
 222:Core/Src/main.c ****       IMU.Gz_Callib+=IMU.Gz;
 1480              		.loc 1 222 25 discriminator 3 view .LVU426
 1481 0060 94ED017A 		vldr.32	s14, [r4, #4]
 222:Core/Src/main.c ****       IMU.Gz_Callib+=IMU.Gz;
 1482              		.loc 1 222 20 discriminator 3 view .LVU427
 1483 0064 77EE877A 		vadd.f32	s15, s15, s14
 1484 0068 C4ED047A 		vstr.32	s15, [r4, #16]
 223:Core/Src/main.c ****       HAL_Delay(1);
 1485              		.loc 1 223 7 is_stmt 1 discriminator 3 view .LVU428
 223:Core/Src/main.c ****       HAL_Delay(1);
ARM GAS  C:\Users\pc\AppData\Local\Temp\ccXXeMaj.s 			page 47


 1486              		.loc 1 223 10 is_stmt 0 discriminator 3 view .LVU429
 1487 006c D4ED057A 		vldr.32	s15, [r4, #20]
 223:Core/Src/main.c ****       HAL_Delay(1);
 1488              		.loc 1 223 25 discriminator 3 view .LVU430
 1489 0070 94ED027A 		vldr.32	s14, [r4, #8]
 223:Core/Src/main.c ****       HAL_Delay(1);
 1490              		.loc 1 223 20 discriminator 3 view .LVU431
 1491 0074 77EE877A 		vadd.f32	s15, s15, s14
 1492 0078 C4ED057A 		vstr.32	s15, [r4, #20]
 224:Core/Src/main.c ****   }
 1493              		.loc 1 224 7 is_stmt 1 discriminator 3 view .LVU432
 1494 007c 0120     		movs	r0, #1
 1495 007e FFF7FEFF 		bl	HAL_Delay
 1496              	.LVL88:
 218:Core/Src/main.c ****   {
 1497              		.loc 1 218 42 discriminator 3 view .LVU433
 1498 0082 0135     		adds	r5, r5, #1
 1499              	.LVL89:
 1500              	.L88:
 218:Core/Src/main.c ****   {
 1501              		.loc 1 218 28 discriminator 1 view .LVU434
 1502 0084 B5F5FA6F 		cmp	r5, #2000
 1503 0088 DCDB     		blt	.L89
 1504              	.LBE13:
 227:Core/Src/main.c ****   IMU.Gy_Callib/=2000;
 1505              		.loc 1 227 3 view .LVU435
 227:Core/Src/main.c ****   IMU.Gy_Callib/=2000;
 1506              		.loc 1 227 6 is_stmt 0 view .LVU436
 1507 008a 6E4B     		ldr	r3, .L92+12
 1508 008c D3ED036A 		vldr.32	s13, [r3, #12]
 227:Core/Src/main.c ****   IMU.Gy_Callib/=2000;
 1509              		.loc 1 227 16 view .LVU437
 1510 0090 DFED6D7A 		vldr.32	s15, .L92+16
 1511 0094 86EEA77A 		vdiv.f32	s14, s13, s15
 1512 0098 83ED037A 		vstr.32	s14, [r3, #12]
 228:Core/Src/main.c ****   IMU.Gz_Callib/=2000;
 1513              		.loc 1 228 3 is_stmt 1 view .LVU438
 228:Core/Src/main.c ****   IMU.Gz_Callib/=2000;
 1514              		.loc 1 228 6 is_stmt 0 view .LVU439
 1515 009c D3ED046A 		vldr.32	s13, [r3, #16]
 228:Core/Src/main.c ****   IMU.Gz_Callib/=2000;
 1516              		.loc 1 228 16 view .LVU440
 1517 00a0 86EEA77A 		vdiv.f32	s14, s13, s15
 1518 00a4 83ED047A 		vstr.32	s14, [r3, #16]
 229:Core/Src/main.c **** 
 1519              		.loc 1 229 3 is_stmt 1 view .LVU441
 229:Core/Src/main.c **** 
 1520              		.loc 1 229 6 is_stmt 0 view .LVU442
 1521 00a8 D3ED056A 		vldr.32	s13, [r3, #20]
 229:Core/Src/main.c **** 
 1522              		.loc 1 229 16 view .LVU443
 1523 00ac 86EEA77A 		vdiv.f32	s14, s13, s15
 1524 00b0 83ED057A 		vstr.32	s14, [r3, #20]
 1525              	.LVL90:
 1526              	.L90:
 236:Core/Src/main.c ****   {
 1527              		.loc 1 236 3 is_stmt 1 discriminator 1 view .LVU444
ARM GAS  C:\Users\pc\AppData\Local\Temp\ccXXeMaj.s 			page 48


 1528              	.LBB14:
 238:Core/Src/main.c ****   float dt =(float)(current_time - last_time) / 1.0; // 250 Hz deriverive 
 1529              		.loc 1 238 5 discriminator 1 view .LVU445
 238:Core/Src/main.c ****   float dt =(float)(current_time - last_time) / 1.0; // 250 Hz deriverive 
 1530              		.loc 1 238 29 is_stmt 0 discriminator 1 view .LVU446
 1531 00b4 FFF7FEFF 		bl	HAL_GetTick
 1532              	.LVL91:
 1533 00b8 0546     		mov	r5, r0
 1534              	.LVL92:
 239:Core/Src/main.c ****   
 1535              		.loc 1 239 3 is_stmt 1 discriminator 1 view .LVU447
 239:Core/Src/main.c ****   
 1536              		.loc 1 239 34 is_stmt 0 discriminator 1 view .LVU448
 1537 00ba DFF8B881 		ldr	r8, .L92+60
 1538 00be D8F80030 		ldr	r3, [r8]
 1539 00c2 C31A     		subs	r3, r0, r3
 239:Core/Src/main.c ****   
 1540              		.loc 1 239 9 discriminator 1 view .LVU449
 1541 00c4 07EE903A 		vmov	s15, r3	@ int
 1542 00c8 B8EE678A 		vcvt.f32.u32	s16, s15
 1543              	.LVL93:
 241:Core/Src/main.c ****     IMU.Gx -= IMU.Gx_Callib;
 1544              		.loc 1 241 5 is_stmt 1 discriminator 1 view .LVU450
 1545 00cc 5D4C     		ldr	r4, .L92+12
 1546 00ce 2046     		mov	r0, r4
 1547              	.LVL94:
 241:Core/Src/main.c ****     IMU.Gx -= IMU.Gx_Callib;
 1548              		.loc 1 241 5 is_stmt 0 discriminator 1 view .LVU451
 1549 00d0 FFF7FEFF 		bl	MPU6050_Read
 1550              	.LVL95:
 242:Core/Src/main.c ****     IMU.Gy -= IMU.Gy_Callib;
 1551              		.loc 1 242 5 is_stmt 1 discriminator 1 view .LVU452
 242:Core/Src/main.c ****     IMU.Gy -= IMU.Gy_Callib;
 1552              		.loc 1 242 8 is_stmt 0 discriminator 1 view .LVU453
 1553 00d4 D4ED008A 		vldr.32	s17, [r4]
 242:Core/Src/main.c ****     IMU.Gy -= IMU.Gy_Callib;
 1554              		.loc 1 242 18 discriminator 1 view .LVU454
 1555 00d8 D4ED037A 		vldr.32	s15, [r4, #12]
 242:Core/Src/main.c ****     IMU.Gy -= IMU.Gy_Callib;
 1556              		.loc 1 242 12 discriminator 1 view .LVU455
 1557 00dc 78EEE78A 		vsub.f32	s17, s17, s15
 1558 00e0 C4ED008A 		vstr.32	s17, [r4]
 243:Core/Src/main.c ****     IMU.Gz -= IMU.Gz_Callib;
 1559              		.loc 1 243 5 is_stmt 1 discriminator 1 view .LVU456
 243:Core/Src/main.c ****     IMU.Gz -= IMU.Gz_Callib;
 1560              		.loc 1 243 8 is_stmt 0 discriminator 1 view .LVU457
 1561 00e4 D4ED017A 		vldr.32	s15, [r4, #4]
 243:Core/Src/main.c ****     IMU.Gz -= IMU.Gz_Callib;
 1562              		.loc 1 243 18 discriminator 1 view .LVU458
 1563 00e8 94ED047A 		vldr.32	s14, [r4, #16]
 243:Core/Src/main.c ****     IMU.Gz -= IMU.Gz_Callib;
 1564              		.loc 1 243 12 discriminator 1 view .LVU459
 1565 00ec 77EEC77A 		vsub.f32	s15, s15, s14
 1566 00f0 C4ED017A 		vstr.32	s15, [r4, #4]
 244:Core/Src/main.c ****     /* USER CODE END WHILE */
 1567              		.loc 1 244 5 is_stmt 1 discriminator 1 view .LVU460
 244:Core/Src/main.c ****     /* USER CODE END WHILE */
ARM GAS  C:\Users\pc\AppData\Local\Temp\ccXXeMaj.s 			page 49


 1568              		.loc 1 244 8 is_stmt 0 discriminator 1 view .LVU461
 1569 00f4 D4ED027A 		vldr.32	s15, [r4, #8]
 244:Core/Src/main.c ****     /* USER CODE END WHILE */
 1570              		.loc 1 244 18 discriminator 1 view .LVU462
 1571 00f8 94ED057A 		vldr.32	s14, [r4, #20]
 244:Core/Src/main.c ****     /* USER CODE END WHILE */
 1572              		.loc 1 244 12 discriminator 1 view .LVU463
 1573 00fc 77EEC77A 		vsub.f32	s15, s15, s14
 1574 0100 C4ED027A 		vstr.32	s15, [r4, #8]
 247:Core/Src/main.c ****     KalmanX = Kalman_Filter(&Kalman, IMU.Gy, IMU.Pitch, dt);
 1575              		.loc 1 247 5 is_stmt 1 discriminator 1 view .LVU464
 247:Core/Src/main.c ****     KalmanX = Kalman_Filter(&Kalman, IMU.Gy, IMU.Pitch, dt);
 1576              		.loc 1 247 16 is_stmt 0 discriminator 1 view .LVU465
 1577 0104 206B     		ldr	r0, [r4, #48]	@ float
 1578 0106 FFF7FEFF 		bl	__aeabi_f2d
 1579              	.LVL96:
 1580 010a 41EC190B 		vmov	d9, r0, r1
 1581 010e 18EE900A 		vmov	r0, s17
 1582 0112 FFF7FEFF 		bl	__aeabi_f2d
 1583              	.LVL97:
 1584 0116 4D4F     		ldr	r7, .L92+20
 1585 0118 B0EE482A 		vmov.f32	s4, s16
 1586 011c B0EE491A 		vmov.f32	s2, s18
 1587 0120 F0EE691A 		vmov.f32	s3, s19
 1588 0124 41EC100B 		vmov	d0, r0, r1
 1589 0128 3846     		mov	r0, r7
 1590 012a FFF7FEFF 		bl	Kalman_Filter
 1591              	.LVL98:
 247:Core/Src/main.c ****     KalmanX = Kalman_Filter(&Kalman, IMU.Gy, IMU.Pitch, dt);
 1592              		.loc 1 247 14 discriminator 1 view .LVU466
 1593 012e 484E     		ldr	r6, .L92+24
 1594 0130 86ED000B 		vstr.64	d0, [r6]
 248:Core/Src/main.c **** 
 1595              		.loc 1 248 5 is_stmt 1 discriminator 1 view .LVU467
 248:Core/Src/main.c **** 
 1596              		.loc 1 248 41 is_stmt 0 discriminator 1 view .LVU468
 1597 0134 D4F80490 		ldr	r9, [r4, #4]	@ float
 248:Core/Src/main.c **** 
 1598              		.loc 1 248 15 discriminator 1 view .LVU469
 1599 0138 606B     		ldr	r0, [r4, #52]	@ float
 1600 013a FFF7FEFF 		bl	__aeabi_f2d
 1601              	.LVL99:
 1602 013e 41EC190B 		vmov	d9, r0, r1
 1603 0142 4846     		mov	r0, r9	@ float
 1604 0144 FFF7FEFF 		bl	__aeabi_f2d
 1605              	.LVL100:
 1606 0148 B0EE482A 		vmov.f32	s4, s16
 1607 014c B0EE491A 		vmov.f32	s2, s18
 1608 0150 F0EE691A 		vmov.f32	s3, s19
 1609 0154 41EC100B 		vmov	d0, r0, r1
 1610 0158 3846     		mov	r0, r7
 1611 015a FFF7FEFF 		bl	Kalman_Filter
 1612              	.LVL101:
 1613 015e B0EE401A 		vmov.f32	s2, s0
 1614 0162 F0EE601A 		vmov.f32	s3, s1
 248:Core/Src/main.c **** 
 1615              		.loc 1 248 13 discriminator 1 view .LVU470
ARM GAS  C:\Users\pc\AppData\Local\Temp\ccXXeMaj.s 			page 50


 1616 0166 3B4F     		ldr	r7, .L92+28
 1617 0168 87ED000B 		vstr.64	d0, [r7]
 250:Core/Src/main.c ****     Pitch_Input = PID_Control(0, KalmanY, dt);
 1618              		.loc 1 250 5 is_stmt 1 discriminator 1 view .LVU471
 250:Core/Src/main.c ****     Pitch_Input = PID_Control(0, KalmanY, dt);
 1619              		.loc 1 250 19 is_stmt 0 discriminator 1 view .LVU472
 1620 016c 9FED329B 		vldr.64	d9, .L92
 1621 0170 B0EE482A 		vmov.f32	s4, s16
 1622 0174 B0EE490A 		vmov.f32	s0, s18
 1623 0178 F0EE690A 		vmov.f32	s1, s19
 1624 017c FFF7FEFF 		bl	PID_Control
 1625              	.LVL102:
 1626 0180 51EC100B 		vmov	r0, r1, d0
 1627 0184 FFF7FEFF 		bl	__aeabi_d2f
 1628              	.LVL103:
 250:Core/Src/main.c ****     Pitch_Input = PID_Control(0, KalmanY, dt);
 1629              		.loc 1 250 17 discriminator 1 view .LVU473
 1630 0188 DFF8EC90 		ldr	r9, .L92+64
 1631 018c C9F80000 		str	r0, [r9]	@ float
 251:Core/Src/main.c ****  
 1632              		.loc 1 251 5 is_stmt 1 discriminator 1 view .LVU474
 251:Core/Src/main.c ****  
 1633              		.loc 1 251 19 is_stmt 0 discriminator 1 view .LVU475
 1634 0190 B0EE482A 		vmov.f32	s4, s16
 1635 0194 96ED001B 		vldr.64	d1, [r6]
 1636 0198 B0EE490A 		vmov.f32	s0, s18
 1637 019c F0EE690A 		vmov.f32	s1, s19
 1638 01a0 FFF7FEFF 		bl	PID_Control
 1639              	.LVL104:
 1640 01a4 51EC100B 		vmov	r0, r1, d0
 1641 01a8 FFF7FEFF 		bl	__aeabi_d2f
 1642              	.LVL105:
 1643 01ac 0446     		mov	r4, r0	@ float
 251:Core/Src/main.c ****  
 1644              		.loc 1 251 17 discriminator 1 view .LVU476
 1645 01ae 2A4B     		ldr	r3, .L92+32
 1646 01b0 1860     		str	r0, [r3]	@ float
 253:Core/Src/main.c ****     last_time = current_time;
 1647              		.loc 1 253 5 is_stmt 1 discriminator 1 view .LVU477
 1648 01b2 2A4B     		ldr	r3, .L92+36
 1649 01b4 1868     		ldr	r0, [r3]	@ float
 1650 01b6 FFF7FEFF 		bl	__aeabi_f2d
 1651              	.LVL106:
 1652 01ba 41EC190B 		vmov	d9, r0, r1
 1653 01be 2046     		mov	r0, r4	@ float
 1654 01c0 FFF7FEFF 		bl	__aeabi_f2d
 1655              	.LVL107:
 1656 01c4 41EC180B 		vmov	d8, r0, r1
 1657              	.LVL108:
 253:Core/Src/main.c ****     last_time = current_time;
 1658              		.loc 1 253 5 is_stmt 0 discriminator 1 view .LVU478
 1659 01c8 D9F80000 		ldr	r0, [r9]	@ float
 1660 01cc FFF7FEFF 		bl	__aeabi_f2d
 1661              	.LVL109:
 1662 01d0 B0EE492A 		vmov.f32	s4, s18
 1663 01d4 F0EE692A 		vmov.f32	s5, s19
 1664 01d8 B0EE481A 		vmov.f32	s2, s16
ARM GAS  C:\Users\pc\AppData\Local\Temp\ccXXeMaj.s 			page 51


 1665 01dc F0EE681A 		vmov.f32	s3, s17
 1666 01e0 41EC100B 		vmov	d0, r0, r1
 1667 01e4 1E4B     		ldr	r3, .L92+40
 1668 01e6 1888     		ldrh	r0, [r3]
 1669 01e8 FFF7FEFF 		bl	motorControl
 1670              	.LVL110:
 254:Core/Src/main.c ****     /* USER CODE BEGIN 3 */
 1671              		.loc 1 254 5 is_stmt 1 discriminator 1 view .LVU479
 254:Core/Src/main.c ****     /* USER CODE BEGIN 3 */
 1672              		.loc 1 254 15 is_stmt 0 discriminator 1 view .LVU480
 1673 01ec C8F80050 		str	r5, [r8]
 256:Core/Src/main.c ****     sprintf(Pitch,"Pitch_Input: %.2f\n",KalmanX);
 1674              		.loc 1 256 5 is_stmt 1 discriminator 1 view .LVU481
 1675 01f0 DFF88880 		ldr	r8, .L92+68
 1676 01f4 D6E90023 		ldrd	r2, [r6]
 1677 01f8 1A49     		ldr	r1, .L92+44
 1678 01fa 4046     		mov	r0, r8
 1679 01fc FFF7FEFF 		bl	sprintf
 1680              	.LVL111:
 257:Core/Src/main.c ****     HAL_UART_Transmit(&huart2, Roll, sizeof(Roll),100);
 1681              		.loc 1 257 5 discriminator 1 view .LVU482
 1682 0200 194D     		ldr	r5, .L92+48
 1683              	.LVL112:
 257:Core/Src/main.c ****     HAL_UART_Transmit(&huart2, Roll, sizeof(Roll),100);
 1684              		.loc 1 257 5 is_stmt 0 discriminator 1 view .LVU483
 1685 0202 D7E90023 		ldrd	r2, [r7]
 1686 0206 1949     		ldr	r1, .L92+52
 1687 0208 2846     		mov	r0, r5
 1688 020a FFF7FEFF 		bl	sprintf
 1689              	.LVL113:
 258:Core/Src/main.c ****     HAL_UART_Transmit(&huart2, Pitch, sizeof(Pitch),100);
 1690              		.loc 1 258 5 is_stmt 1 discriminator 1 view .LVU484
 1691 020e 184C     		ldr	r4, .L92+56
 1692 0210 6423     		movs	r3, #100
 1693 0212 1E22     		movs	r2, #30
 1694 0214 4146     		mov	r1, r8
 1695 0216 2046     		mov	r0, r4
 1696 0218 FFF7FEFF 		bl	HAL_UART_Transmit
 1697              	.LVL114:
 259:Core/Src/main.c ****     /**
 1698              		.loc 1 259 5 discriminator 1 view .LVU485
 1699 021c 6423     		movs	r3, #100
 1700 021e 1E22     		movs	r2, #30
 1701 0220 2946     		mov	r1, r5
 1702 0222 2046     		mov	r0, r4
 1703 0224 FFF7FEFF 		bl	HAL_UART_Transmit
 1704              	.LVL115:
 268:Core/Src/main.c ****   }
 1705              		.loc 1 268 5 discriminator 1 view .LVU486
 1706 0228 4FF49670 		mov	r0, #300
 1707 022c FFF7FEFF 		bl	HAL_Delay
 1708              	.LVL116:
 1709              	.LBE14:
 236:Core/Src/main.c ****   {
 1710              		.loc 1 236 9 discriminator 1 view .LVU487
 1711 0230 40E7     		b	.L90
 1712              	.L93:
ARM GAS  C:\Users\pc\AppData\Local\Temp\ccXXeMaj.s 			page 52


 1713 0232 00BFAFF3 		.align	3
 1713      0080
 1714              	.L92:
 1715 0238 00000000 		.word	0
 1716 023c 00000000 		.word	0
 1717 0240 00000000 		.word	hi2c1
 1718 0244 00000000 		.word	IMU
 1719 0248 0000FA44 		.word	1157234688
 1720 024c 00000000 		.word	Kalman
 1721 0250 00000000 		.word	KalmanY
 1722 0254 00000000 		.word	KalmanX
 1723 0258 00000000 		.word	Pitch_Input
 1724 025c 00000000 		.word	Yaw_Input
 1725 0260 00000000 		.word	Throttle_Input
 1726 0264 00000000 		.word	.LC0
 1727 0268 00000000 		.word	Pitch
 1728 026c 14000000 		.word	.LC1
 1729 0270 00000000 		.word	huart2
 1730 0274 00000000 		.word	last_time
 1731 0278 00000000 		.word	Roll_Input
 1732 027c 00000000 		.word	Roll
 1733              		.cfi_endproc
 1734              	.LFE132:
 1736              		.global	last_time
 1737              		.section	.bss.last_time,"aw",%nobits
 1738              		.align	2
 1741              	last_time:
 1742 0000 00000000 		.space	4
 1743              		.global	elapsedTimer
 1744              		.section	.bss.elapsedTimer,"aw",%nobits
 1745              		.align	2
 1748              	elapsedTimer:
 1749 0000 00000000 		.space	30
 1749      00000000 
 1749      00000000 
 1749      00000000 
 1749      00000000 
 1750              		.global	Pitch
 1751              		.section	.bss.Pitch,"aw",%nobits
 1752              		.align	2
 1755              	Pitch:
 1756 0000 00000000 		.space	30
 1756      00000000 
 1756      00000000 
 1756      00000000 
 1756      00000000 
 1757              		.global	Roll
 1758              		.section	.bss.Roll,"aw",%nobits
 1759              		.align	2
 1762              	Roll:
 1763 0000 00000000 		.space	30
 1763      00000000 
 1763      00000000 
 1763      00000000 
 1763      00000000 
 1764              		.global	Yaw_Input
 1765              		.section	.bss.Yaw_Input,"aw",%nobits
ARM GAS  C:\Users\pc\AppData\Local\Temp\ccXXeMaj.s 			page 53


 1766              		.align	2
 1769              	Yaw_Input:
 1770 0000 00000000 		.space	4
 1771              		.global	Throttle_Input
 1772              		.section	.data.Throttle_Input,"aw"
 1773              		.align	1
 1776              	Throttle_Input:
 1777 0000 6400     		.short	100
 1778              		.global	Pitch_Input
 1779              		.section	.bss.Pitch_Input,"aw",%nobits
 1780              		.align	2
 1783              	Pitch_Input:
 1784 0000 00000000 		.space	4
 1785              		.global	Roll_Input
 1786              		.section	.bss.Roll_Input,"aw",%nobits
 1787              		.align	2
 1790              	Roll_Input:
 1791 0000 00000000 		.space	4
 1792              		.global	KalmanY
 1793              		.section	.bss.KalmanY,"aw",%nobits
 1794              		.align	3
 1797              	KalmanY:
 1798 0000 00000000 		.space	8
 1798      00000000 
 1799              		.global	KalmanX
 1800              		.section	.bss.KalmanX,"aw",%nobits
 1801              		.align	3
 1804              	KalmanX:
 1805 0000 00000000 		.space	8
 1805      00000000 
 1806              		.global	Kalman
 1807              		.section	.data.Kalman,"aw"
 1808              		.align	2
 1811              	Kalman:
 1812 0000 00000000 		.space	32
 1812      00000000 
 1812      00000000 
 1812      00000000 
 1812      00000000 
 1813 0020 6F12833A 		.word	981668463
 1814 0024 A69B443B 		.word	994352038
 1815 0028 0AD7233C 		.word	1008981770
 1816              		.global	motor
 1817              		.section	.data.motor,"aw"
 1818              		.align	2
 1821              	motor:
 1822 0000 00000000 		.space	8
 1822      00000000 
 1823 0008 00000041 		.word	1090519040
 1824 000c 00007041 		.word	1097859072
 1825 0010 0000803F 		.word	1065353216
 1826 0014 00000000 		.space	16
 1826      00000000 
 1826      00000000 
 1826      00000000 
 1827              		.global	IMU
 1828              		.section	.bss.IMU,"aw",%nobits
ARM GAS  C:\Users\pc\AppData\Local\Temp\ccXXeMaj.s 			page 54


 1829              		.align	2
 1832              	IMU:
 1833 0000 00000000 		.space	64
 1833      00000000 
 1833      00000000 
 1833      00000000 
 1833      00000000 
 1834              		.global	huart2
 1835              		.section	.bss.huart2,"aw",%nobits
 1836              		.align	2
 1839              	huart2:
 1840 0000 00000000 		.space	68
 1840      00000000 
 1840      00000000 
 1840      00000000 
 1840      00000000 
 1841              		.global	huart1
 1842              		.section	.bss.huart1,"aw",%nobits
 1843              		.align	2
 1846              	huart1:
 1847 0000 00000000 		.space	68
 1847      00000000 
 1847      00000000 
 1847      00000000 
 1847      00000000 
 1848              		.global	hdma_tim3_ch1_trig
 1849              		.section	.bss.hdma_tim3_ch1_trig,"aw",%nobits
 1850              		.align	2
 1853              	hdma_tim3_ch1_trig:
 1854 0000 00000000 		.space	96
 1854      00000000 
 1854      00000000 
 1854      00000000 
 1854      00000000 
 1855              		.global	hdma_tim3_ch2
 1856              		.section	.bss.hdma_tim3_ch2,"aw",%nobits
 1857              		.align	2
 1860              	hdma_tim3_ch2:
 1861 0000 00000000 		.space	96
 1861      00000000 
 1861      00000000 
 1861      00000000 
 1861      00000000 
 1862              		.global	hdma_tim2_up_ch3
 1863              		.section	.bss.hdma_tim2_up_ch3,"aw",%nobits
 1864              		.align	2
 1867              	hdma_tim2_up_ch3:
 1868 0000 00000000 		.space	96
 1868      00000000 
 1868      00000000 
 1868      00000000 
 1868      00000000 
 1869              		.global	hdma_tim2_ch2_ch4
 1870              		.section	.bss.hdma_tim2_ch2_ch4,"aw",%nobits
 1871              		.align	2
 1874              	hdma_tim2_ch2_ch4:
 1875 0000 00000000 		.space	96
ARM GAS  C:\Users\pc\AppData\Local\Temp\ccXXeMaj.s 			page 55


 1875      00000000 
 1875      00000000 
 1875      00000000 
 1875      00000000 
 1876              		.global	htim3
 1877              		.section	.bss.htim3,"aw",%nobits
 1878              		.align	2
 1881              	htim3:
 1882 0000 00000000 		.space	72
 1882      00000000 
 1882      00000000 
 1882      00000000 
 1882      00000000 
 1883              		.global	htim2
 1884              		.section	.bss.htim2,"aw",%nobits
 1885              		.align	2
 1888              	htim2:
 1889 0000 00000000 		.space	72
 1889      00000000 
 1889      00000000 
 1889      00000000 
 1889      00000000 
 1890              		.global	hi2c1
 1891              		.section	.bss.hi2c1,"aw",%nobits
 1892              		.align	2
 1895              	hi2c1:
 1896 0000 00000000 		.space	84
 1896      00000000 
 1896      00000000 
 1896      00000000 
 1896      00000000 
 1897              		.text
 1898              	.Letext0:
 1899              		.file 3 "Drivers/CMSIS/Device/ST/STM32F4xx/Include/stm32f446xx.h"
 1900              		.file 4 "c:\\program files (x86)\\arm gnu toolchain arm-none-eabi\\12.2 mpacbti-rel1\\arm-none-eab
 1901              		.file 5 "c:\\program files (x86)\\arm gnu toolchain arm-none-eabi\\12.2 mpacbti-rel1\\arm-none-eab
 1902              		.file 6 "Drivers/STM32F4xx_HAL_Driver/Inc/stm32f4xx_hal_def.h"
 1903              		.file 7 "Drivers/STM32F4xx_HAL_Driver/Inc/stm32f4xx_hal_rcc_ex.h"
 1904              		.file 8 "Drivers/STM32F4xx_HAL_Driver/Inc/stm32f4xx_hal_rcc.h"
 1905              		.file 9 "Drivers/STM32F4xx_HAL_Driver/Inc/stm32f4xx_hal_dma.h"
 1906              		.file 10 "Drivers/STM32F4xx_HAL_Driver/Inc/stm32f4xx_hal_i2c.h"
 1907              		.file 11 "Drivers/STM32F4xx_HAL_Driver/Inc/stm32f4xx_hal_tim.h"
 1908              		.file 12 "Drivers/STM32F4xx_HAL_Driver/Inc/stm32f4xx_hal_uart.h"
 1909              		.file 13 "Core/Inc/mpu6050.h"
 1910              		.file 14 "Core/Inc/kalman_filter.h"
 1911              		.file 15 "Core/Inc/bmp180_for_stm32_hal.h"
 1912              		.file 16 "Drivers/STM32F4xx_HAL_Driver/Inc/stm32f4xx_hal_tim_ex.h"
 1913              		.file 17 "Core/Inc/main.h"
 1914              		.file 18 "Drivers/STM32F4xx_HAL_Driver/Inc/stm32f4xx_hal_cortex.h"
 1915              		.file 19 "Drivers/STM32F4xx_HAL_Driver/Inc/stm32f4xx_hal_pwr_ex.h"
 1916              		.file 20 "Drivers/STM32F4xx_HAL_Driver/Inc/stm32f4xx_hal.h"
 1917              		.file 21 "<built-in>"
ARM GAS  C:\Users\pc\AppData\Local\Temp\ccXXeMaj.s 			page 56


DEFINED SYMBOLS
                            *ABS*:00000000 main.c
C:\Users\pc\AppData\Local\Temp\ccXXeMaj.s:21     .text.MX_GPIO_Init:00000000 $t
C:\Users\pc\AppData\Local\Temp\ccXXeMaj.s:26     .text.MX_GPIO_Init:00000000 MX_GPIO_Init
C:\Users\pc\AppData\Local\Temp\ccXXeMaj.s:111    .text.MX_GPIO_Init:0000005c $d
C:\Users\pc\AppData\Local\Temp\ccXXeMaj.s:116    .text.MX_DMA_Init:00000000 $t
C:\Users\pc\AppData\Local\Temp\ccXXeMaj.s:121    .text.MX_DMA_Init:00000000 MX_DMA_Init
C:\Users\pc\AppData\Local\Temp\ccXXeMaj.s:202    .text.MX_DMA_Init:00000060 $d
C:\Users\pc\AppData\Local\Temp\ccXXeMaj.s:210    .text.PID_Control:00000000 $t
C:\Users\pc\AppData\Local\Temp\ccXXeMaj.s:216    .text.PID_Control:00000000 PID_Control
C:\Users\pc\AppData\Local\Temp\ccXXeMaj.s:328    .text.PID_Control:000000b8 $d
C:\Users\pc\AppData\Local\Temp\ccXXeMaj.s:1821   .data.motor:00000000 motor
C:\Users\pc\AppData\Local\Temp\ccXXeMaj.s:336    .text.motorControl:00000000 $t
C:\Users\pc\AppData\Local\Temp\ccXXeMaj.s:342    .text.motorControl:00000000 motorControl
C:\Users\pc\AppData\Local\Temp\ccXXeMaj.s:603    .text.motorControl:00000170 $d
C:\Users\pc\AppData\Local\Temp\ccXXeMaj.s:1888   .bss.htim2:00000000 htim2
C:\Users\pc\AppData\Local\Temp\ccXXeMaj.s:1881   .bss.htim3:00000000 htim3
C:\Users\pc\AppData\Local\Temp\ccXXeMaj.s:610    .text.Error_Handler:00000000 $t
C:\Users\pc\AppData\Local\Temp\ccXXeMaj.s:616    .text.Error_Handler:00000000 Error_Handler
C:\Users\pc\AppData\Local\Temp\ccXXeMaj.s:648    .text.MX_I2C1_Init:00000000 $t
C:\Users\pc\AppData\Local\Temp\ccXXeMaj.s:653    .text.MX_I2C1_Init:00000000 MX_I2C1_Init
C:\Users\pc\AppData\Local\Temp\ccXXeMaj.s:711    .text.MX_I2C1_Init:0000002c $d
C:\Users\pc\AppData\Local\Temp\ccXXeMaj.s:1895   .bss.hi2c1:00000000 hi2c1
C:\Users\pc\AppData\Local\Temp\ccXXeMaj.s:718    .text.MX_USART1_UART_Init:00000000 $t
C:\Users\pc\AppData\Local\Temp\ccXXeMaj.s:723    .text.MX_USART1_UART_Init:00000000 MX_USART1_UART_Init
C:\Users\pc\AppData\Local\Temp\ccXXeMaj.s:778    .text.MX_USART1_UART_Init:0000002c $d
C:\Users\pc\AppData\Local\Temp\ccXXeMaj.s:1846   .bss.huart1:00000000 huart1
C:\Users\pc\AppData\Local\Temp\ccXXeMaj.s:784    .text.MX_USART2_UART_Init:00000000 $t
C:\Users\pc\AppData\Local\Temp\ccXXeMaj.s:789    .text.MX_USART2_UART_Init:00000000 MX_USART2_UART_Init
C:\Users\pc\AppData\Local\Temp\ccXXeMaj.s:844    .text.MX_USART2_UART_Init:0000002c $d
C:\Users\pc\AppData\Local\Temp\ccXXeMaj.s:1839   .bss.huart2:00000000 huart2
C:\Users\pc\AppData\Local\Temp\ccXXeMaj.s:850    .text.MX_TIM2_Init:00000000 $t
C:\Users\pc\AppData\Local\Temp\ccXXeMaj.s:855    .text.MX_TIM2_Init:00000000 MX_TIM2_Init
C:\Users\pc\AppData\Local\Temp\ccXXeMaj.s:1022   .text.MX_TIM2_Init:000000b0 $d
C:\Users\pc\AppData\Local\Temp\ccXXeMaj.s:1027   .text.MX_TIM3_Init:00000000 $t
C:\Users\pc\AppData\Local\Temp\ccXXeMaj.s:1032   .text.MX_TIM3_Init:00000000 MX_TIM3_Init
C:\Users\pc\AppData\Local\Temp\ccXXeMaj.s:1198   .text.MX_TIM3_Init:000000ac $d
C:\Users\pc\AppData\Local\Temp\ccXXeMaj.s:1204   .text.SystemClock_Config:00000000 $t
C:\Users\pc\AppData\Local\Temp\ccXXeMaj.s:1210   .text.SystemClock_Config:00000000 SystemClock_Config
C:\Users\pc\AppData\Local\Temp\ccXXeMaj.s:1370   .text.SystemClock_Config:000000ac $d
C:\Users\pc\AppData\Local\Temp\ccXXeMaj.s:1377   .rodata.main.str1.4:00000000 $d
C:\Users\pc\AppData\Local\Temp\ccXXeMaj.s:1384   .text.main:00000000 $t
C:\Users\pc\AppData\Local\Temp\ccXXeMaj.s:1390   .text.main:00000000 main
C:\Users\pc\AppData\Local\Temp\ccXXeMaj.s:1715   .text.main:00000238 $d
C:\Users\pc\AppData\Local\Temp\ccXXeMaj.s:1832   .bss.IMU:00000000 IMU
C:\Users\pc\AppData\Local\Temp\ccXXeMaj.s:1811   .data.Kalman:00000000 Kalman
C:\Users\pc\AppData\Local\Temp\ccXXeMaj.s:1797   .bss.KalmanY:00000000 KalmanY
C:\Users\pc\AppData\Local\Temp\ccXXeMaj.s:1804   .bss.KalmanX:00000000 KalmanX
C:\Users\pc\AppData\Local\Temp\ccXXeMaj.s:1783   .bss.Pitch_Input:00000000 Pitch_Input
C:\Users\pc\AppData\Local\Temp\ccXXeMaj.s:1769   .bss.Yaw_Input:00000000 Yaw_Input
C:\Users\pc\AppData\Local\Temp\ccXXeMaj.s:1776   .data.Throttle_Input:00000000 Throttle_Input
C:\Users\pc\AppData\Local\Temp\ccXXeMaj.s:1755   .bss.Pitch:00000000 Pitch
C:\Users\pc\AppData\Local\Temp\ccXXeMaj.s:1741   .bss.last_time:00000000 last_time
C:\Users\pc\AppData\Local\Temp\ccXXeMaj.s:1790   .bss.Roll_Input:00000000 Roll_Input
C:\Users\pc\AppData\Local\Temp\ccXXeMaj.s:1762   .bss.Roll:00000000 Roll
C:\Users\pc\AppData\Local\Temp\ccXXeMaj.s:1738   .bss.last_time:00000000 $d
C:\Users\pc\AppData\Local\Temp\ccXXeMaj.s:1748   .bss.elapsedTimer:00000000 elapsedTimer
ARM GAS  C:\Users\pc\AppData\Local\Temp\ccXXeMaj.s 			page 57


C:\Users\pc\AppData\Local\Temp\ccXXeMaj.s:1745   .bss.elapsedTimer:00000000 $d
C:\Users\pc\AppData\Local\Temp\ccXXeMaj.s:1752   .bss.Pitch:00000000 $d
C:\Users\pc\AppData\Local\Temp\ccXXeMaj.s:1759   .bss.Roll:00000000 $d
C:\Users\pc\AppData\Local\Temp\ccXXeMaj.s:1766   .bss.Yaw_Input:00000000 $d
C:\Users\pc\AppData\Local\Temp\ccXXeMaj.s:1773   .data.Throttle_Input:00000000 $d
C:\Users\pc\AppData\Local\Temp\ccXXeMaj.s:1780   .bss.Pitch_Input:00000000 $d
C:\Users\pc\AppData\Local\Temp\ccXXeMaj.s:1787   .bss.Roll_Input:00000000 $d
C:\Users\pc\AppData\Local\Temp\ccXXeMaj.s:1794   .bss.KalmanY:00000000 $d
C:\Users\pc\AppData\Local\Temp\ccXXeMaj.s:1801   .bss.KalmanX:00000000 $d
C:\Users\pc\AppData\Local\Temp\ccXXeMaj.s:1808   .data.Kalman:00000000 $d
C:\Users\pc\AppData\Local\Temp\ccXXeMaj.s:1818   .data.motor:00000000 $d
C:\Users\pc\AppData\Local\Temp\ccXXeMaj.s:1829   .bss.IMU:00000000 $d
C:\Users\pc\AppData\Local\Temp\ccXXeMaj.s:1836   .bss.huart2:00000000 $d
C:\Users\pc\AppData\Local\Temp\ccXXeMaj.s:1843   .bss.huart1:00000000 $d
C:\Users\pc\AppData\Local\Temp\ccXXeMaj.s:1853   .bss.hdma_tim3_ch1_trig:00000000 hdma_tim3_ch1_trig
C:\Users\pc\AppData\Local\Temp\ccXXeMaj.s:1850   .bss.hdma_tim3_ch1_trig:00000000 $d
C:\Users\pc\AppData\Local\Temp\ccXXeMaj.s:1860   .bss.hdma_tim3_ch2:00000000 hdma_tim3_ch2
C:\Users\pc\AppData\Local\Temp\ccXXeMaj.s:1857   .bss.hdma_tim3_ch2:00000000 $d
C:\Users\pc\AppData\Local\Temp\ccXXeMaj.s:1867   .bss.hdma_tim2_up_ch3:00000000 hdma_tim2_up_ch3
C:\Users\pc\AppData\Local\Temp\ccXXeMaj.s:1864   .bss.hdma_tim2_up_ch3:00000000 $d
C:\Users\pc\AppData\Local\Temp\ccXXeMaj.s:1874   .bss.hdma_tim2_ch2_ch4:00000000 hdma_tim2_ch2_ch4
C:\Users\pc\AppData\Local\Temp\ccXXeMaj.s:1871   .bss.hdma_tim2_ch2_ch4:00000000 $d
C:\Users\pc\AppData\Local\Temp\ccXXeMaj.s:1878   .bss.htim3:00000000 $d
C:\Users\pc\AppData\Local\Temp\ccXXeMaj.s:1885   .bss.htim2:00000000 $d
C:\Users\pc\AppData\Local\Temp\ccXXeMaj.s:1892   .bss.hi2c1:00000000 $d

UNDEFINED SYMBOLS
HAL_NVIC_SetPriority
HAL_NVIC_EnableIRQ
__aeabi_dsub
__aeabi_d2iz
__aeabi_f2d
__aeabi_i2d
__aeabi_dadd
__aeabi_d2uiz
HAL_TIM_PWM_Start
HAL_I2C_Init
HAL_UART_Init
HAL_TIM_Base_Init
HAL_TIM_ConfigClockSource
HAL_TIM_PWM_Init
HAL_TIMEx_MasterConfigSynchronization
HAL_TIM_PWM_ConfigChannel
HAL_TIM_MspPostInit
memset
HAL_RCC_OscConfig
HAL_PWREx_EnableOverDrive
HAL_RCC_ClockConfig
__aeabi_d2f
HAL_Init
MPU6050_Init
BMP180_Init
BMP180_SetOversampling
BMP180_UpdateCalibrationData
MPU6050_Read
HAL_Delay
HAL_GetTick
ARM GAS  C:\Users\pc\AppData\Local\Temp\ccXXeMaj.s 			page 58


Kalman_Filter
sprintf
HAL_UART_Transmit
