ARM GAS  C:\Users\pc\AppData\Local\Temp\ccttY3Fi.s 			page 1


   1              		.cpu cortex-m4
   2              		.arch armv7e-m
   3              		.fpu fpv4-sp-d16
   4              		.eabi_attribute 27, 1
   5              		.eabi_attribute 28, 1
   6              		.eabi_attribute 20, 1
   7              		.eabi_attribute 21, 1
   8              		.eabi_attribute 23, 3
   9              		.eabi_attribute 24, 1
  10              		.eabi_attribute 25, 1
  11              		.eabi_attribute 26, 1
  12              		.eabi_attribute 30, 1
  13              		.eabi_attribute 34, 1
  14              		.eabi_attribute 18, 4
  15              		.file	"stm32f4xx_hal_msp.c"
  16              		.text
  17              	.Ltext0:
  18              		.cfi_sections	.debug_frame
  19              		.file 1 "Core/Src/stm32f4xx_hal_msp.c"
  20              		.section	.text.HAL_MspInit,"ax",%progbits
  21              		.align	1
  22              		.global	HAL_MspInit
  23              		.syntax unified
  24              		.thumb
  25              		.thumb_func
  27              	HAL_MspInit:
  28              	.LFB130:
   1:Core/Src/stm32f4xx_hal_msp.c **** /* USER CODE BEGIN Header */
   2:Core/Src/stm32f4xx_hal_msp.c **** /**
   3:Core/Src/stm32f4xx_hal_msp.c ****   ******************************************************************************
   4:Core/Src/stm32f4xx_hal_msp.c ****   * @file         stm32f4xx_hal_msp.c
   5:Core/Src/stm32f4xx_hal_msp.c ****   * @brief        This file provides code for the MSP Initialization
   6:Core/Src/stm32f4xx_hal_msp.c ****   *               and de-Initialization codes.
   7:Core/Src/stm32f4xx_hal_msp.c ****   ******************************************************************************
   8:Core/Src/stm32f4xx_hal_msp.c ****   * @attention
   9:Core/Src/stm32f4xx_hal_msp.c ****   *
  10:Core/Src/stm32f4xx_hal_msp.c ****   * Copyright (c) 2023 STMicroelectronics.
  11:Core/Src/stm32f4xx_hal_msp.c ****   * All rights reserved.
  12:Core/Src/stm32f4xx_hal_msp.c ****   *
  13:Core/Src/stm32f4xx_hal_msp.c ****   * This software is licensed under terms that can be found in the LICENSE file
  14:Core/Src/stm32f4xx_hal_msp.c ****   * in the root directory of this software component.
  15:Core/Src/stm32f4xx_hal_msp.c ****   * If no LICENSE file comes with this software, it is provided AS-IS.
  16:Core/Src/stm32f4xx_hal_msp.c ****   *
  17:Core/Src/stm32f4xx_hal_msp.c ****   ******************************************************************************
  18:Core/Src/stm32f4xx_hal_msp.c ****   */
  19:Core/Src/stm32f4xx_hal_msp.c **** /* USER CODE END Header */
  20:Core/Src/stm32f4xx_hal_msp.c **** 
  21:Core/Src/stm32f4xx_hal_msp.c **** /* Includes ------------------------------------------------------------------*/
  22:Core/Src/stm32f4xx_hal_msp.c **** #include "main.h"
  23:Core/Src/stm32f4xx_hal_msp.c **** 
  24:Core/Src/stm32f4xx_hal_msp.c **** /* USER CODE BEGIN Includes */
  25:Core/Src/stm32f4xx_hal_msp.c **** 
  26:Core/Src/stm32f4xx_hal_msp.c **** /* USER CODE END Includes */
  27:Core/Src/stm32f4xx_hal_msp.c **** extern DMA_HandleTypeDef hdma_tim2_ch2_ch4;
  28:Core/Src/stm32f4xx_hal_msp.c **** 
  29:Core/Src/stm32f4xx_hal_msp.c **** extern DMA_HandleTypeDef hdma_tim2_up_ch3;
  30:Core/Src/stm32f4xx_hal_msp.c **** 
ARM GAS  C:\Users\pc\AppData\Local\Temp\ccttY3Fi.s 			page 2


  31:Core/Src/stm32f4xx_hal_msp.c **** extern DMA_HandleTypeDef hdma_tim3_ch2;
  32:Core/Src/stm32f4xx_hal_msp.c **** 
  33:Core/Src/stm32f4xx_hal_msp.c **** extern DMA_HandleTypeDef hdma_tim3_ch1_trig;
  34:Core/Src/stm32f4xx_hal_msp.c **** 
  35:Core/Src/stm32f4xx_hal_msp.c **** /* Private typedef -----------------------------------------------------------*/
  36:Core/Src/stm32f4xx_hal_msp.c **** /* USER CODE BEGIN TD */
  37:Core/Src/stm32f4xx_hal_msp.c **** 
  38:Core/Src/stm32f4xx_hal_msp.c **** /* USER CODE END TD */
  39:Core/Src/stm32f4xx_hal_msp.c **** 
  40:Core/Src/stm32f4xx_hal_msp.c **** /* Private define ------------------------------------------------------------*/
  41:Core/Src/stm32f4xx_hal_msp.c **** /* USER CODE BEGIN Define */
  42:Core/Src/stm32f4xx_hal_msp.c **** 
  43:Core/Src/stm32f4xx_hal_msp.c **** /* USER CODE END Define */
  44:Core/Src/stm32f4xx_hal_msp.c **** 
  45:Core/Src/stm32f4xx_hal_msp.c **** /* Private macro -------------------------------------------------------------*/
  46:Core/Src/stm32f4xx_hal_msp.c **** /* USER CODE BEGIN Macro */
  47:Core/Src/stm32f4xx_hal_msp.c **** 
  48:Core/Src/stm32f4xx_hal_msp.c **** /* USER CODE END Macro */
  49:Core/Src/stm32f4xx_hal_msp.c **** 
  50:Core/Src/stm32f4xx_hal_msp.c **** /* Private variables ---------------------------------------------------------*/
  51:Core/Src/stm32f4xx_hal_msp.c **** /* USER CODE BEGIN PV */
  52:Core/Src/stm32f4xx_hal_msp.c **** 
  53:Core/Src/stm32f4xx_hal_msp.c **** /* USER CODE END PV */
  54:Core/Src/stm32f4xx_hal_msp.c **** 
  55:Core/Src/stm32f4xx_hal_msp.c **** /* Private function prototypes -----------------------------------------------*/
  56:Core/Src/stm32f4xx_hal_msp.c **** /* USER CODE BEGIN PFP */
  57:Core/Src/stm32f4xx_hal_msp.c **** 
  58:Core/Src/stm32f4xx_hal_msp.c **** /* USER CODE END PFP */
  59:Core/Src/stm32f4xx_hal_msp.c **** 
  60:Core/Src/stm32f4xx_hal_msp.c **** /* External functions --------------------------------------------------------*/
  61:Core/Src/stm32f4xx_hal_msp.c **** /* USER CODE BEGIN ExternalFunctions */
  62:Core/Src/stm32f4xx_hal_msp.c **** 
  63:Core/Src/stm32f4xx_hal_msp.c **** /* USER CODE END ExternalFunctions */
  64:Core/Src/stm32f4xx_hal_msp.c **** 
  65:Core/Src/stm32f4xx_hal_msp.c **** /* USER CODE BEGIN 0 */
  66:Core/Src/stm32f4xx_hal_msp.c **** 
  67:Core/Src/stm32f4xx_hal_msp.c **** /* USER CODE END 0 */
  68:Core/Src/stm32f4xx_hal_msp.c **** 
  69:Core/Src/stm32f4xx_hal_msp.c **** void HAL_TIM_MspPostInit(TIM_HandleTypeDef *htim);
  70:Core/Src/stm32f4xx_hal_msp.c ****                                         /**
  71:Core/Src/stm32f4xx_hal_msp.c ****   * Initializes the Global MSP.
  72:Core/Src/stm32f4xx_hal_msp.c ****   */
  73:Core/Src/stm32f4xx_hal_msp.c **** void HAL_MspInit(void)
  74:Core/Src/stm32f4xx_hal_msp.c **** {
  29              		.loc 1 74 1 view -0
  30              		.cfi_startproc
  31              		@ args = 0, pretend = 0, frame = 8
  32              		@ frame_needed = 0, uses_anonymous_args = 0
  33 0000 00B5     		push	{lr}
  34              		.cfi_def_cfa_offset 4
  35              		.cfi_offset 14, -4
  36 0002 83B0     		sub	sp, sp, #12
  37              		.cfi_def_cfa_offset 16
  75:Core/Src/stm32f4xx_hal_msp.c ****   /* USER CODE BEGIN MspInit 0 */
  76:Core/Src/stm32f4xx_hal_msp.c **** 
  77:Core/Src/stm32f4xx_hal_msp.c ****   /* USER CODE END MspInit 0 */
  78:Core/Src/stm32f4xx_hal_msp.c **** 
ARM GAS  C:\Users\pc\AppData\Local\Temp\ccttY3Fi.s 			page 3


  79:Core/Src/stm32f4xx_hal_msp.c ****   __HAL_RCC_SYSCFG_CLK_ENABLE();
  38              		.loc 1 79 3 view .LVU1
  39              	.LBB2:
  40              		.loc 1 79 3 view .LVU2
  41 0004 0021     		movs	r1, #0
  42 0006 0091     		str	r1, [sp]
  43              		.loc 1 79 3 view .LVU3
  44 0008 0C4B     		ldr	r3, .L3
  45 000a 5A6C     		ldr	r2, [r3, #68]
  46 000c 42F48042 		orr	r2, r2, #16384
  47 0010 5A64     		str	r2, [r3, #68]
  48              		.loc 1 79 3 view .LVU4
  49 0012 5A6C     		ldr	r2, [r3, #68]
  50 0014 02F48042 		and	r2, r2, #16384
  51 0018 0092     		str	r2, [sp]
  52              		.loc 1 79 3 view .LVU5
  53 001a 009A     		ldr	r2, [sp]
  54              	.LBE2:
  55              		.loc 1 79 3 view .LVU6
  80:Core/Src/stm32f4xx_hal_msp.c ****   __HAL_RCC_PWR_CLK_ENABLE();
  56              		.loc 1 80 3 view .LVU7
  57              	.LBB3:
  58              		.loc 1 80 3 view .LVU8
  59 001c 0191     		str	r1, [sp, #4]
  60              		.loc 1 80 3 view .LVU9
  61 001e 1A6C     		ldr	r2, [r3, #64]
  62 0020 42F08052 		orr	r2, r2, #268435456
  63 0024 1A64     		str	r2, [r3, #64]
  64              		.loc 1 80 3 view .LVU10
  65 0026 1B6C     		ldr	r3, [r3, #64]
  66 0028 03F08053 		and	r3, r3, #268435456
  67 002c 0193     		str	r3, [sp, #4]
  68              		.loc 1 80 3 view .LVU11
  69 002e 019B     		ldr	r3, [sp, #4]
  70              	.LBE3:
  71              		.loc 1 80 3 view .LVU12
  81:Core/Src/stm32f4xx_hal_msp.c **** 
  82:Core/Src/stm32f4xx_hal_msp.c ****   HAL_NVIC_SetPriorityGrouping(NVIC_PRIORITYGROUP_0);
  72              		.loc 1 82 3 view .LVU13
  73 0030 0720     		movs	r0, #7
  74 0032 FFF7FEFF 		bl	HAL_NVIC_SetPriorityGrouping
  75              	.LVL0:
  83:Core/Src/stm32f4xx_hal_msp.c **** 
  84:Core/Src/stm32f4xx_hal_msp.c ****   /* System interrupt init*/
  85:Core/Src/stm32f4xx_hal_msp.c **** 
  86:Core/Src/stm32f4xx_hal_msp.c ****   /* USER CODE BEGIN MspInit 1 */
  87:Core/Src/stm32f4xx_hal_msp.c **** 
  88:Core/Src/stm32f4xx_hal_msp.c ****   /* USER CODE END MspInit 1 */
  89:Core/Src/stm32f4xx_hal_msp.c **** }
  76              		.loc 1 89 1 is_stmt 0 view .LVU14
  77 0036 03B0     		add	sp, sp, #12
  78              		.cfi_def_cfa_offset 4
  79              		@ sp needed
  80 0038 5DF804FB 		ldr	pc, [sp], #4
  81              	.L4:
  82              		.align	2
  83              	.L3:
ARM GAS  C:\Users\pc\AppData\Local\Temp\ccttY3Fi.s 			page 4


  84 003c 00380240 		.word	1073887232
  85              		.cfi_endproc
  86              	.LFE130:
  88              		.section	.text.HAL_I2C_MspInit,"ax",%progbits
  89              		.align	1
  90              		.global	HAL_I2C_MspInit
  91              		.syntax unified
  92              		.thumb
  93              		.thumb_func
  95              	HAL_I2C_MspInit:
  96              	.LVL1:
  97              	.LFB131:
  90:Core/Src/stm32f4xx_hal_msp.c **** 
  91:Core/Src/stm32f4xx_hal_msp.c **** /**
  92:Core/Src/stm32f4xx_hal_msp.c **** * @brief I2C MSP Initialization
  93:Core/Src/stm32f4xx_hal_msp.c **** * This function configures the hardware resources used in this example
  94:Core/Src/stm32f4xx_hal_msp.c **** * @param hi2c: I2C handle pointer
  95:Core/Src/stm32f4xx_hal_msp.c **** * @retval None
  96:Core/Src/stm32f4xx_hal_msp.c **** */
  97:Core/Src/stm32f4xx_hal_msp.c **** void HAL_I2C_MspInit(I2C_HandleTypeDef* hi2c)
  98:Core/Src/stm32f4xx_hal_msp.c **** {
  98              		.loc 1 98 1 is_stmt 1 view -0
  99              		.cfi_startproc
 100              		@ args = 0, pretend = 0, frame = 32
 101              		@ frame_needed = 0, uses_anonymous_args = 0
 102              		.loc 1 98 1 is_stmt 0 view .LVU16
 103 0000 30B5     		push	{r4, r5, lr}
 104              		.cfi_def_cfa_offset 12
 105              		.cfi_offset 4, -12
 106              		.cfi_offset 5, -8
 107              		.cfi_offset 14, -4
 108 0002 89B0     		sub	sp, sp, #36
 109              		.cfi_def_cfa_offset 48
  99:Core/Src/stm32f4xx_hal_msp.c ****   GPIO_InitTypeDef GPIO_InitStruct = {0};
 110              		.loc 1 99 3 is_stmt 1 view .LVU17
 111              		.loc 1 99 20 is_stmt 0 view .LVU18
 112 0004 0023     		movs	r3, #0
 113 0006 0393     		str	r3, [sp, #12]
 114 0008 0493     		str	r3, [sp, #16]
 115 000a 0593     		str	r3, [sp, #20]
 116 000c 0693     		str	r3, [sp, #24]
 117 000e 0793     		str	r3, [sp, #28]
 100:Core/Src/stm32f4xx_hal_msp.c ****   if(hi2c->Instance==I2C1)
 118              		.loc 1 100 3 is_stmt 1 view .LVU19
 119              		.loc 1 100 10 is_stmt 0 view .LVU20
 120 0010 0268     		ldr	r2, [r0]
 121              		.loc 1 100 5 view .LVU21
 122 0012 144B     		ldr	r3, .L9
 123 0014 9A42     		cmp	r2, r3
 124 0016 01D0     		beq	.L8
 125              	.LVL2:
 126              	.L5:
 101:Core/Src/stm32f4xx_hal_msp.c ****   {
 102:Core/Src/stm32f4xx_hal_msp.c ****   /* USER CODE BEGIN I2C1_MspInit 0 */
 103:Core/Src/stm32f4xx_hal_msp.c **** 
 104:Core/Src/stm32f4xx_hal_msp.c ****   /* USER CODE END I2C1_MspInit 0 */
 105:Core/Src/stm32f4xx_hal_msp.c **** 
ARM GAS  C:\Users\pc\AppData\Local\Temp\ccttY3Fi.s 			page 5


 106:Core/Src/stm32f4xx_hal_msp.c ****     __HAL_RCC_GPIOB_CLK_ENABLE();
 107:Core/Src/stm32f4xx_hal_msp.c ****     /**I2C1 GPIO Configuration
 108:Core/Src/stm32f4xx_hal_msp.c ****     PB8     ------> I2C1_SCL
 109:Core/Src/stm32f4xx_hal_msp.c ****     PB9     ------> I2C1_SDA
 110:Core/Src/stm32f4xx_hal_msp.c ****     */
 111:Core/Src/stm32f4xx_hal_msp.c ****     GPIO_InitStruct.Pin = GPIO_PIN_8|GPIO_PIN_9;
 112:Core/Src/stm32f4xx_hal_msp.c ****     GPIO_InitStruct.Mode = GPIO_MODE_AF_OD;
 113:Core/Src/stm32f4xx_hal_msp.c ****     GPIO_InitStruct.Pull = GPIO_NOPULL;
 114:Core/Src/stm32f4xx_hal_msp.c ****     GPIO_InitStruct.Speed = GPIO_SPEED_FREQ_VERY_HIGH;
 115:Core/Src/stm32f4xx_hal_msp.c ****     GPIO_InitStruct.Alternate = GPIO_AF4_I2C1;
 116:Core/Src/stm32f4xx_hal_msp.c ****     HAL_GPIO_Init(GPIOB, &GPIO_InitStruct);
 117:Core/Src/stm32f4xx_hal_msp.c **** 
 118:Core/Src/stm32f4xx_hal_msp.c ****     /* Peripheral clock enable */
 119:Core/Src/stm32f4xx_hal_msp.c ****     __HAL_RCC_I2C1_CLK_ENABLE();
 120:Core/Src/stm32f4xx_hal_msp.c ****   /* USER CODE BEGIN I2C1_MspInit 1 */
 121:Core/Src/stm32f4xx_hal_msp.c **** 
 122:Core/Src/stm32f4xx_hal_msp.c ****   /* USER CODE END I2C1_MspInit 1 */
 123:Core/Src/stm32f4xx_hal_msp.c ****   }
 124:Core/Src/stm32f4xx_hal_msp.c **** 
 125:Core/Src/stm32f4xx_hal_msp.c **** }
 127              		.loc 1 125 1 view .LVU22
 128 0018 09B0     		add	sp, sp, #36
 129              		.cfi_remember_state
 130              		.cfi_def_cfa_offset 12
 131              		@ sp needed
 132 001a 30BD     		pop	{r4, r5, pc}
 133              	.LVL3:
 134              	.L8:
 135              		.cfi_restore_state
 106:Core/Src/stm32f4xx_hal_msp.c ****     /**I2C1 GPIO Configuration
 136              		.loc 1 106 5 is_stmt 1 view .LVU23
 137              	.LBB4:
 106:Core/Src/stm32f4xx_hal_msp.c ****     /**I2C1 GPIO Configuration
 138              		.loc 1 106 5 view .LVU24
 139 001c 0025     		movs	r5, #0
 140 001e 0195     		str	r5, [sp, #4]
 106:Core/Src/stm32f4xx_hal_msp.c ****     /**I2C1 GPIO Configuration
 141              		.loc 1 106 5 view .LVU25
 142 0020 114C     		ldr	r4, .L9+4
 143 0022 236B     		ldr	r3, [r4, #48]
 144 0024 43F00203 		orr	r3, r3, #2
 145 0028 2363     		str	r3, [r4, #48]
 106:Core/Src/stm32f4xx_hal_msp.c ****     /**I2C1 GPIO Configuration
 146              		.loc 1 106 5 view .LVU26
 147 002a 236B     		ldr	r3, [r4, #48]
 148 002c 03F00203 		and	r3, r3, #2
 149 0030 0193     		str	r3, [sp, #4]
 106:Core/Src/stm32f4xx_hal_msp.c ****     /**I2C1 GPIO Configuration
 150              		.loc 1 106 5 view .LVU27
 151 0032 019B     		ldr	r3, [sp, #4]
 152              	.LBE4:
 106:Core/Src/stm32f4xx_hal_msp.c ****     /**I2C1 GPIO Configuration
 153              		.loc 1 106 5 view .LVU28
 111:Core/Src/stm32f4xx_hal_msp.c ****     GPIO_InitStruct.Mode = GPIO_MODE_AF_OD;
 154              		.loc 1 111 5 view .LVU29
 111:Core/Src/stm32f4xx_hal_msp.c ****     GPIO_InitStruct.Mode = GPIO_MODE_AF_OD;
 155              		.loc 1 111 25 is_stmt 0 view .LVU30
ARM GAS  C:\Users\pc\AppData\Local\Temp\ccttY3Fi.s 			page 6


 156 0034 4FF44073 		mov	r3, #768
 157 0038 0393     		str	r3, [sp, #12]
 112:Core/Src/stm32f4xx_hal_msp.c ****     GPIO_InitStruct.Pull = GPIO_NOPULL;
 158              		.loc 1 112 5 is_stmt 1 view .LVU31
 112:Core/Src/stm32f4xx_hal_msp.c ****     GPIO_InitStruct.Pull = GPIO_NOPULL;
 159              		.loc 1 112 26 is_stmt 0 view .LVU32
 160 003a 1223     		movs	r3, #18
 161 003c 0493     		str	r3, [sp, #16]
 113:Core/Src/stm32f4xx_hal_msp.c ****     GPIO_InitStruct.Speed = GPIO_SPEED_FREQ_VERY_HIGH;
 162              		.loc 1 113 5 is_stmt 1 view .LVU33
 114:Core/Src/stm32f4xx_hal_msp.c ****     GPIO_InitStruct.Alternate = GPIO_AF4_I2C1;
 163              		.loc 1 114 5 view .LVU34
 114:Core/Src/stm32f4xx_hal_msp.c ****     GPIO_InitStruct.Alternate = GPIO_AF4_I2C1;
 164              		.loc 1 114 27 is_stmt 0 view .LVU35
 165 003e 0323     		movs	r3, #3
 166 0040 0693     		str	r3, [sp, #24]
 115:Core/Src/stm32f4xx_hal_msp.c ****     HAL_GPIO_Init(GPIOB, &GPIO_InitStruct);
 167              		.loc 1 115 5 is_stmt 1 view .LVU36
 115:Core/Src/stm32f4xx_hal_msp.c ****     HAL_GPIO_Init(GPIOB, &GPIO_InitStruct);
 168              		.loc 1 115 31 is_stmt 0 view .LVU37
 169 0042 0423     		movs	r3, #4
 170 0044 0793     		str	r3, [sp, #28]
 116:Core/Src/stm32f4xx_hal_msp.c **** 
 171              		.loc 1 116 5 is_stmt 1 view .LVU38
 172 0046 03A9     		add	r1, sp, #12
 173 0048 0848     		ldr	r0, .L9+8
 174              	.LVL4:
 116:Core/Src/stm32f4xx_hal_msp.c **** 
 175              		.loc 1 116 5 is_stmt 0 view .LVU39
 176 004a FFF7FEFF 		bl	HAL_GPIO_Init
 177              	.LVL5:
 119:Core/Src/stm32f4xx_hal_msp.c ****   /* USER CODE BEGIN I2C1_MspInit 1 */
 178              		.loc 1 119 5 is_stmt 1 view .LVU40
 179              	.LBB5:
 119:Core/Src/stm32f4xx_hal_msp.c ****   /* USER CODE BEGIN I2C1_MspInit 1 */
 180              		.loc 1 119 5 view .LVU41
 181 004e 0295     		str	r5, [sp, #8]
 119:Core/Src/stm32f4xx_hal_msp.c ****   /* USER CODE BEGIN I2C1_MspInit 1 */
 182              		.loc 1 119 5 view .LVU42
 183 0050 236C     		ldr	r3, [r4, #64]
 184 0052 43F40013 		orr	r3, r3, #2097152
 185 0056 2364     		str	r3, [r4, #64]
 119:Core/Src/stm32f4xx_hal_msp.c ****   /* USER CODE BEGIN I2C1_MspInit 1 */
 186              		.loc 1 119 5 view .LVU43
 187 0058 236C     		ldr	r3, [r4, #64]
 188 005a 03F40013 		and	r3, r3, #2097152
 189 005e 0293     		str	r3, [sp, #8]
 119:Core/Src/stm32f4xx_hal_msp.c ****   /* USER CODE BEGIN I2C1_MspInit 1 */
 190              		.loc 1 119 5 view .LVU44
 191 0060 029B     		ldr	r3, [sp, #8]
 192              	.LBE5:
 119:Core/Src/stm32f4xx_hal_msp.c ****   /* USER CODE BEGIN I2C1_MspInit 1 */
 193              		.loc 1 119 5 view .LVU45
 194              		.loc 1 125 1 is_stmt 0 view .LVU46
 195 0062 D9E7     		b	.L5
 196              	.L10:
 197              		.align	2
ARM GAS  C:\Users\pc\AppData\Local\Temp\ccttY3Fi.s 			page 7


 198              	.L9:
 199 0064 00540040 		.word	1073763328
 200 0068 00380240 		.word	1073887232
 201 006c 00040240 		.word	1073873920
 202              		.cfi_endproc
 203              	.LFE131:
 205              		.section	.text.HAL_I2C_MspDeInit,"ax",%progbits
 206              		.align	1
 207              		.global	HAL_I2C_MspDeInit
 208              		.syntax unified
 209              		.thumb
 210              		.thumb_func
 212              	HAL_I2C_MspDeInit:
 213              	.LVL6:
 214              	.LFB132:
 126:Core/Src/stm32f4xx_hal_msp.c **** 
 127:Core/Src/stm32f4xx_hal_msp.c **** /**
 128:Core/Src/stm32f4xx_hal_msp.c **** * @brief I2C MSP De-Initialization
 129:Core/Src/stm32f4xx_hal_msp.c **** * This function freeze the hardware resources used in this example
 130:Core/Src/stm32f4xx_hal_msp.c **** * @param hi2c: I2C handle pointer
 131:Core/Src/stm32f4xx_hal_msp.c **** * @retval None
 132:Core/Src/stm32f4xx_hal_msp.c **** */
 133:Core/Src/stm32f4xx_hal_msp.c **** void HAL_I2C_MspDeInit(I2C_HandleTypeDef* hi2c)
 134:Core/Src/stm32f4xx_hal_msp.c **** {
 215              		.loc 1 134 1 is_stmt 1 view -0
 216              		.cfi_startproc
 217              		@ args = 0, pretend = 0, frame = 0
 218              		@ frame_needed = 0, uses_anonymous_args = 0
 135:Core/Src/stm32f4xx_hal_msp.c ****   if(hi2c->Instance==I2C1)
 219              		.loc 1 135 3 view .LVU48
 220              		.loc 1 135 10 is_stmt 0 view .LVU49
 221 0000 0268     		ldr	r2, [r0]
 222              		.loc 1 135 5 view .LVU50
 223 0002 0B4B     		ldr	r3, .L18
 224 0004 9A42     		cmp	r2, r3
 225 0006 00D0     		beq	.L17
 226 0008 7047     		bx	lr
 227              	.L17:
 134:Core/Src/stm32f4xx_hal_msp.c ****   if(hi2c->Instance==I2C1)
 228              		.loc 1 134 1 view .LVU51
 229 000a 10B5     		push	{r4, lr}
 230              		.cfi_def_cfa_offset 8
 231              		.cfi_offset 4, -8
 232              		.cfi_offset 14, -4
 136:Core/Src/stm32f4xx_hal_msp.c ****   {
 137:Core/Src/stm32f4xx_hal_msp.c ****   /* USER CODE BEGIN I2C1_MspDeInit 0 */
 138:Core/Src/stm32f4xx_hal_msp.c **** 
 139:Core/Src/stm32f4xx_hal_msp.c ****   /* USER CODE END I2C1_MspDeInit 0 */
 140:Core/Src/stm32f4xx_hal_msp.c ****     /* Peripheral clock disable */
 141:Core/Src/stm32f4xx_hal_msp.c ****     __HAL_RCC_I2C1_CLK_DISABLE();
 233              		.loc 1 141 5 is_stmt 1 view .LVU52
 234 000c 094A     		ldr	r2, .L18+4
 235 000e 136C     		ldr	r3, [r2, #64]
 236 0010 23F40013 		bic	r3, r3, #2097152
 237 0014 1364     		str	r3, [r2, #64]
 142:Core/Src/stm32f4xx_hal_msp.c **** 
 143:Core/Src/stm32f4xx_hal_msp.c ****     /**I2C1 GPIO Configuration
ARM GAS  C:\Users\pc\AppData\Local\Temp\ccttY3Fi.s 			page 8


 144:Core/Src/stm32f4xx_hal_msp.c ****     PB8     ------> I2C1_SCL
 145:Core/Src/stm32f4xx_hal_msp.c ****     PB9     ------> I2C1_SDA
 146:Core/Src/stm32f4xx_hal_msp.c ****     */
 147:Core/Src/stm32f4xx_hal_msp.c ****     HAL_GPIO_DeInit(GPIOB, GPIO_PIN_8);
 238              		.loc 1 147 5 view .LVU53
 239 0016 084C     		ldr	r4, .L18+8
 240 0018 4FF48071 		mov	r1, #256
 241 001c 2046     		mov	r0, r4
 242              	.LVL7:
 243              		.loc 1 147 5 is_stmt 0 view .LVU54
 244 001e FFF7FEFF 		bl	HAL_GPIO_DeInit
 245              	.LVL8:
 148:Core/Src/stm32f4xx_hal_msp.c **** 
 149:Core/Src/stm32f4xx_hal_msp.c ****     HAL_GPIO_DeInit(GPIOB, GPIO_PIN_9);
 246              		.loc 1 149 5 is_stmt 1 view .LVU55
 247 0022 4FF40071 		mov	r1, #512
 248 0026 2046     		mov	r0, r4
 249 0028 FFF7FEFF 		bl	HAL_GPIO_DeInit
 250              	.LVL9:
 150:Core/Src/stm32f4xx_hal_msp.c **** 
 151:Core/Src/stm32f4xx_hal_msp.c ****   /* USER CODE BEGIN I2C1_MspDeInit 1 */
 152:Core/Src/stm32f4xx_hal_msp.c **** 
 153:Core/Src/stm32f4xx_hal_msp.c ****   /* USER CODE END I2C1_MspDeInit 1 */
 154:Core/Src/stm32f4xx_hal_msp.c ****   }
 155:Core/Src/stm32f4xx_hal_msp.c **** 
 156:Core/Src/stm32f4xx_hal_msp.c **** }
 251              		.loc 1 156 1 is_stmt 0 view .LVU56
 252 002c 10BD     		pop	{r4, pc}
 253              	.L19:
 254 002e 00BF     		.align	2
 255              	.L18:
 256 0030 00540040 		.word	1073763328
 257 0034 00380240 		.word	1073887232
 258 0038 00040240 		.word	1073873920
 259              		.cfi_endproc
 260              	.LFE132:
 262              		.section	.text.HAL_TIM_Base_MspInit,"ax",%progbits
 263              		.align	1
 264              		.global	HAL_TIM_Base_MspInit
 265              		.syntax unified
 266              		.thumb
 267              		.thumb_func
 269              	HAL_TIM_Base_MspInit:
 270              	.LVL10:
 271              	.LFB133:
 157:Core/Src/stm32f4xx_hal_msp.c **** 
 158:Core/Src/stm32f4xx_hal_msp.c **** /**
 159:Core/Src/stm32f4xx_hal_msp.c **** * @brief TIM_Base MSP Initialization
 160:Core/Src/stm32f4xx_hal_msp.c **** * This function configures the hardware resources used in this example
 161:Core/Src/stm32f4xx_hal_msp.c **** * @param htim_base: TIM_Base handle pointer
 162:Core/Src/stm32f4xx_hal_msp.c **** * @retval None
 163:Core/Src/stm32f4xx_hal_msp.c **** */
 164:Core/Src/stm32f4xx_hal_msp.c **** void HAL_TIM_Base_MspInit(TIM_HandleTypeDef* htim_base)
 165:Core/Src/stm32f4xx_hal_msp.c **** {
 272              		.loc 1 165 1 is_stmt 1 view -0
 273              		.cfi_startproc
 274              		@ args = 0, pretend = 0, frame = 8
ARM GAS  C:\Users\pc\AppData\Local\Temp\ccttY3Fi.s 			page 9


 275              		@ frame_needed = 0, uses_anonymous_args = 0
 276              		.loc 1 165 1 is_stmt 0 view .LVU58
 277 0000 10B5     		push	{r4, lr}
 278              		.cfi_def_cfa_offset 8
 279              		.cfi_offset 4, -8
 280              		.cfi_offset 14, -4
 281 0002 82B0     		sub	sp, sp, #8
 282              		.cfi_def_cfa_offset 16
 283 0004 0446     		mov	r4, r0
 166:Core/Src/stm32f4xx_hal_msp.c ****   if(htim_base->Instance==TIM2)
 284              		.loc 1 166 3 is_stmt 1 view .LVU59
 285              		.loc 1 166 15 is_stmt 0 view .LVU60
 286 0006 0368     		ldr	r3, [r0]
 287              		.loc 1 166 5 view .LVU61
 288 0008 B3F1804F 		cmp	r3, #1073741824
 289 000c 04D0     		beq	.L28
 167:Core/Src/stm32f4xx_hal_msp.c ****   {
 168:Core/Src/stm32f4xx_hal_msp.c ****   /* USER CODE BEGIN TIM2_MspInit 0 */
 169:Core/Src/stm32f4xx_hal_msp.c **** 
 170:Core/Src/stm32f4xx_hal_msp.c ****   /* USER CODE END TIM2_MspInit 0 */
 171:Core/Src/stm32f4xx_hal_msp.c ****     /* Peripheral clock enable */
 172:Core/Src/stm32f4xx_hal_msp.c ****     __HAL_RCC_TIM2_CLK_ENABLE();
 173:Core/Src/stm32f4xx_hal_msp.c **** 
 174:Core/Src/stm32f4xx_hal_msp.c ****     /* TIM2 DMA Init */
 175:Core/Src/stm32f4xx_hal_msp.c ****     /* TIM2_CH2_CH4 Init */
 176:Core/Src/stm32f4xx_hal_msp.c ****     hdma_tim2_ch2_ch4.Instance = DMA1_Stream6;
 177:Core/Src/stm32f4xx_hal_msp.c ****     hdma_tim2_ch2_ch4.Init.Channel = DMA_CHANNEL_3;
 178:Core/Src/stm32f4xx_hal_msp.c ****     hdma_tim2_ch2_ch4.Init.Direction = DMA_MEMORY_TO_PERIPH;
 179:Core/Src/stm32f4xx_hal_msp.c ****     hdma_tim2_ch2_ch4.Init.PeriphInc = DMA_PINC_DISABLE;
 180:Core/Src/stm32f4xx_hal_msp.c ****     hdma_tim2_ch2_ch4.Init.MemInc = DMA_MINC_ENABLE;
 181:Core/Src/stm32f4xx_hal_msp.c ****     hdma_tim2_ch2_ch4.Init.PeriphDataAlignment = DMA_PDATAALIGN_WORD;
 182:Core/Src/stm32f4xx_hal_msp.c ****     hdma_tim2_ch2_ch4.Init.MemDataAlignment = DMA_MDATAALIGN_WORD;
 183:Core/Src/stm32f4xx_hal_msp.c ****     hdma_tim2_ch2_ch4.Init.Mode = DMA_NORMAL;
 184:Core/Src/stm32f4xx_hal_msp.c ****     hdma_tim2_ch2_ch4.Init.Priority = DMA_PRIORITY_LOW;
 185:Core/Src/stm32f4xx_hal_msp.c ****     hdma_tim2_ch2_ch4.Init.FIFOMode = DMA_FIFOMODE_DISABLE;
 186:Core/Src/stm32f4xx_hal_msp.c ****     if (HAL_DMA_Init(&hdma_tim2_ch2_ch4) != HAL_OK)
 187:Core/Src/stm32f4xx_hal_msp.c ****     {
 188:Core/Src/stm32f4xx_hal_msp.c ****       Error_Handler();
 189:Core/Src/stm32f4xx_hal_msp.c ****     }
 190:Core/Src/stm32f4xx_hal_msp.c **** 
 191:Core/Src/stm32f4xx_hal_msp.c ****     /* Several peripheral DMA handle pointers point to the same DMA handle.
 192:Core/Src/stm32f4xx_hal_msp.c ****      Be aware that there is only one stream to perform all the requested DMAs. */
 193:Core/Src/stm32f4xx_hal_msp.c ****     __HAL_LINKDMA(htim_base,hdma[TIM_DMA_ID_CC2],hdma_tim2_ch2_ch4);
 194:Core/Src/stm32f4xx_hal_msp.c ****     __HAL_LINKDMA(htim_base,hdma[TIM_DMA_ID_CC4],hdma_tim2_ch2_ch4);
 195:Core/Src/stm32f4xx_hal_msp.c **** 
 196:Core/Src/stm32f4xx_hal_msp.c ****     /* TIM2_UP_CH3 Init */
 197:Core/Src/stm32f4xx_hal_msp.c ****     hdma_tim2_up_ch3.Instance = DMA1_Stream1;
 198:Core/Src/stm32f4xx_hal_msp.c ****     hdma_tim2_up_ch3.Init.Channel = DMA_CHANNEL_3;
 199:Core/Src/stm32f4xx_hal_msp.c ****     hdma_tim2_up_ch3.Init.Direction = DMA_MEMORY_TO_PERIPH;
 200:Core/Src/stm32f4xx_hal_msp.c ****     hdma_tim2_up_ch3.Init.PeriphInc = DMA_PINC_DISABLE;
 201:Core/Src/stm32f4xx_hal_msp.c ****     hdma_tim2_up_ch3.Init.MemInc = DMA_MINC_ENABLE;
 202:Core/Src/stm32f4xx_hal_msp.c ****     hdma_tim2_up_ch3.Init.PeriphDataAlignment = DMA_PDATAALIGN_WORD;
 203:Core/Src/stm32f4xx_hal_msp.c ****     hdma_tim2_up_ch3.Init.MemDataAlignment = DMA_MDATAALIGN_WORD;
 204:Core/Src/stm32f4xx_hal_msp.c ****     hdma_tim2_up_ch3.Init.Mode = DMA_NORMAL;
 205:Core/Src/stm32f4xx_hal_msp.c ****     hdma_tim2_up_ch3.Init.Priority = DMA_PRIORITY_LOW;
 206:Core/Src/stm32f4xx_hal_msp.c ****     hdma_tim2_up_ch3.Init.FIFOMode = DMA_FIFOMODE_DISABLE;
 207:Core/Src/stm32f4xx_hal_msp.c ****     if (HAL_DMA_Init(&hdma_tim2_up_ch3) != HAL_OK)
ARM GAS  C:\Users\pc\AppData\Local\Temp\ccttY3Fi.s 			page 10


 208:Core/Src/stm32f4xx_hal_msp.c ****     {
 209:Core/Src/stm32f4xx_hal_msp.c ****       Error_Handler();
 210:Core/Src/stm32f4xx_hal_msp.c ****     }
 211:Core/Src/stm32f4xx_hal_msp.c **** 
 212:Core/Src/stm32f4xx_hal_msp.c ****     /* Several peripheral DMA handle pointers point to the same DMA handle.
 213:Core/Src/stm32f4xx_hal_msp.c ****      Be aware that there is only one stream to perform all the requested DMAs. */
 214:Core/Src/stm32f4xx_hal_msp.c ****     __HAL_LINKDMA(htim_base,hdma[TIM_DMA_ID_UPDATE],hdma_tim2_up_ch3);
 215:Core/Src/stm32f4xx_hal_msp.c ****     __HAL_LINKDMA(htim_base,hdma[TIM_DMA_ID_CC3],hdma_tim2_up_ch3);
 216:Core/Src/stm32f4xx_hal_msp.c **** 
 217:Core/Src/stm32f4xx_hal_msp.c ****   /* USER CODE BEGIN TIM2_MspInit 1 */
 218:Core/Src/stm32f4xx_hal_msp.c **** 
 219:Core/Src/stm32f4xx_hal_msp.c ****   /* USER CODE END TIM2_MspInit 1 */
 220:Core/Src/stm32f4xx_hal_msp.c ****   }
 221:Core/Src/stm32f4xx_hal_msp.c ****   else if(htim_base->Instance==TIM3)
 290              		.loc 1 221 8 is_stmt 1 view .LVU62
 291              		.loc 1 221 10 is_stmt 0 view .LVU63
 292 000e 504A     		ldr	r2, .L34
 293 0010 9342     		cmp	r3, r2
 294 0012 4FD0     		beq	.L29
 295              	.LVL11:
 296              	.L20:
 222:Core/Src/stm32f4xx_hal_msp.c ****   {
 223:Core/Src/stm32f4xx_hal_msp.c ****   /* USER CODE BEGIN TIM3_MspInit 0 */
 224:Core/Src/stm32f4xx_hal_msp.c **** 
 225:Core/Src/stm32f4xx_hal_msp.c ****   /* USER CODE END TIM3_MspInit 0 */
 226:Core/Src/stm32f4xx_hal_msp.c ****     /* Peripheral clock enable */
 227:Core/Src/stm32f4xx_hal_msp.c ****     __HAL_RCC_TIM3_CLK_ENABLE();
 228:Core/Src/stm32f4xx_hal_msp.c **** 
 229:Core/Src/stm32f4xx_hal_msp.c ****     /* TIM3 DMA Init */
 230:Core/Src/stm32f4xx_hal_msp.c ****     /* TIM3_CH2 Init */
 231:Core/Src/stm32f4xx_hal_msp.c ****     hdma_tim3_ch2.Instance = DMA1_Stream5;
 232:Core/Src/stm32f4xx_hal_msp.c ****     hdma_tim3_ch2.Init.Channel = DMA_CHANNEL_5;
 233:Core/Src/stm32f4xx_hal_msp.c ****     hdma_tim3_ch2.Init.Direction = DMA_MEMORY_TO_PERIPH;
 234:Core/Src/stm32f4xx_hal_msp.c ****     hdma_tim3_ch2.Init.PeriphInc = DMA_PINC_DISABLE;
 235:Core/Src/stm32f4xx_hal_msp.c ****     hdma_tim3_ch2.Init.MemInc = DMA_MINC_ENABLE;
 236:Core/Src/stm32f4xx_hal_msp.c ****     hdma_tim3_ch2.Init.PeriphDataAlignment = DMA_PDATAALIGN_HALFWORD;
 237:Core/Src/stm32f4xx_hal_msp.c ****     hdma_tim3_ch2.Init.MemDataAlignment = DMA_MDATAALIGN_HALFWORD;
 238:Core/Src/stm32f4xx_hal_msp.c ****     hdma_tim3_ch2.Init.Mode = DMA_NORMAL;
 239:Core/Src/stm32f4xx_hal_msp.c ****     hdma_tim3_ch2.Init.Priority = DMA_PRIORITY_LOW;
 240:Core/Src/stm32f4xx_hal_msp.c ****     hdma_tim3_ch2.Init.FIFOMode = DMA_FIFOMODE_DISABLE;
 241:Core/Src/stm32f4xx_hal_msp.c ****     if (HAL_DMA_Init(&hdma_tim3_ch2) != HAL_OK)
 242:Core/Src/stm32f4xx_hal_msp.c ****     {
 243:Core/Src/stm32f4xx_hal_msp.c ****       Error_Handler();
 244:Core/Src/stm32f4xx_hal_msp.c ****     }
 245:Core/Src/stm32f4xx_hal_msp.c **** 
 246:Core/Src/stm32f4xx_hal_msp.c ****     __HAL_LINKDMA(htim_base,hdma[TIM_DMA_ID_CC2],hdma_tim3_ch2);
 247:Core/Src/stm32f4xx_hal_msp.c **** 
 248:Core/Src/stm32f4xx_hal_msp.c ****     /* TIM3_CH1_TRIG Init */
 249:Core/Src/stm32f4xx_hal_msp.c ****     hdma_tim3_ch1_trig.Instance = DMA1_Stream4;
 250:Core/Src/stm32f4xx_hal_msp.c ****     hdma_tim3_ch1_trig.Init.Channel = DMA_CHANNEL_5;
 251:Core/Src/stm32f4xx_hal_msp.c ****     hdma_tim3_ch1_trig.Init.Direction = DMA_MEMORY_TO_PERIPH;
 252:Core/Src/stm32f4xx_hal_msp.c ****     hdma_tim3_ch1_trig.Init.PeriphInc = DMA_PINC_DISABLE;
 253:Core/Src/stm32f4xx_hal_msp.c ****     hdma_tim3_ch1_trig.Init.MemInc = DMA_MINC_ENABLE;
 254:Core/Src/stm32f4xx_hal_msp.c ****     hdma_tim3_ch1_trig.Init.PeriphDataAlignment = DMA_PDATAALIGN_HALFWORD;
 255:Core/Src/stm32f4xx_hal_msp.c ****     hdma_tim3_ch1_trig.Init.MemDataAlignment = DMA_MDATAALIGN_HALFWORD;
 256:Core/Src/stm32f4xx_hal_msp.c ****     hdma_tim3_ch1_trig.Init.Mode = DMA_NORMAL;
 257:Core/Src/stm32f4xx_hal_msp.c ****     hdma_tim3_ch1_trig.Init.Priority = DMA_PRIORITY_LOW;
ARM GAS  C:\Users\pc\AppData\Local\Temp\ccttY3Fi.s 			page 11


 258:Core/Src/stm32f4xx_hal_msp.c ****     hdma_tim3_ch1_trig.Init.FIFOMode = DMA_FIFOMODE_DISABLE;
 259:Core/Src/stm32f4xx_hal_msp.c ****     if (HAL_DMA_Init(&hdma_tim3_ch1_trig) != HAL_OK)
 260:Core/Src/stm32f4xx_hal_msp.c ****     {
 261:Core/Src/stm32f4xx_hal_msp.c ****       Error_Handler();
 262:Core/Src/stm32f4xx_hal_msp.c ****     }
 263:Core/Src/stm32f4xx_hal_msp.c **** 
 264:Core/Src/stm32f4xx_hal_msp.c ****     /* Several peripheral DMA handle pointers point to the same DMA handle.
 265:Core/Src/stm32f4xx_hal_msp.c ****      Be aware that there is only one stream to perform all the requested DMAs. */
 266:Core/Src/stm32f4xx_hal_msp.c ****     __HAL_LINKDMA(htim_base,hdma[TIM_DMA_ID_CC1],hdma_tim3_ch1_trig);
 267:Core/Src/stm32f4xx_hal_msp.c ****     __HAL_LINKDMA(htim_base,hdma[TIM_DMA_ID_TRIGGER],hdma_tim3_ch1_trig);
 268:Core/Src/stm32f4xx_hal_msp.c **** 
 269:Core/Src/stm32f4xx_hal_msp.c ****   /* USER CODE BEGIN TIM3_MspInit 1 */
 270:Core/Src/stm32f4xx_hal_msp.c **** 
 271:Core/Src/stm32f4xx_hal_msp.c ****   /* USER CODE END TIM3_MspInit 1 */
 272:Core/Src/stm32f4xx_hal_msp.c ****   }
 273:Core/Src/stm32f4xx_hal_msp.c **** 
 274:Core/Src/stm32f4xx_hal_msp.c **** }
 297              		.loc 1 274 1 view .LVU64
 298 0014 02B0     		add	sp, sp, #8
 299              		.cfi_remember_state
 300              		.cfi_def_cfa_offset 8
 301              		@ sp needed
 302 0016 10BD     		pop	{r4, pc}
 303              	.LVL12:
 304              	.L28:
 305              		.cfi_restore_state
 172:Core/Src/stm32f4xx_hal_msp.c **** 
 306              		.loc 1 172 5 is_stmt 1 view .LVU65
 307              	.LBB6:
 172:Core/Src/stm32f4xx_hal_msp.c **** 
 308              		.loc 1 172 5 view .LVU66
 309 0018 0023     		movs	r3, #0
 310 001a 0093     		str	r3, [sp]
 172:Core/Src/stm32f4xx_hal_msp.c **** 
 311              		.loc 1 172 5 view .LVU67
 312 001c 4D4A     		ldr	r2, .L34+4
 313 001e 116C     		ldr	r1, [r2, #64]
 314 0020 41F00101 		orr	r1, r1, #1
 315 0024 1164     		str	r1, [r2, #64]
 172:Core/Src/stm32f4xx_hal_msp.c **** 
 316              		.loc 1 172 5 view .LVU68
 317 0026 126C     		ldr	r2, [r2, #64]
 318 0028 02F00102 		and	r2, r2, #1
 319 002c 0092     		str	r2, [sp]
 172:Core/Src/stm32f4xx_hal_msp.c **** 
 320              		.loc 1 172 5 view .LVU69
 321 002e 009A     		ldr	r2, [sp]
 322              	.LBE6:
 172:Core/Src/stm32f4xx_hal_msp.c **** 
 323              		.loc 1 172 5 view .LVU70
 176:Core/Src/stm32f4xx_hal_msp.c ****     hdma_tim2_ch2_ch4.Init.Channel = DMA_CHANNEL_3;
 324              		.loc 1 176 5 view .LVU71
 176:Core/Src/stm32f4xx_hal_msp.c ****     hdma_tim2_ch2_ch4.Init.Channel = DMA_CHANNEL_3;
 325              		.loc 1 176 32 is_stmt 0 view .LVU72
 326 0030 4948     		ldr	r0, .L34+8
 327              	.LVL13:
 176:Core/Src/stm32f4xx_hal_msp.c ****     hdma_tim2_ch2_ch4.Init.Channel = DMA_CHANNEL_3;
ARM GAS  C:\Users\pc\AppData\Local\Temp\ccttY3Fi.s 			page 12


 328              		.loc 1 176 32 view .LVU73
 329 0032 4A4A     		ldr	r2, .L34+12
 330 0034 0260     		str	r2, [r0]
 177:Core/Src/stm32f4xx_hal_msp.c ****     hdma_tim2_ch2_ch4.Init.Direction = DMA_MEMORY_TO_PERIPH;
 331              		.loc 1 177 5 is_stmt 1 view .LVU74
 177:Core/Src/stm32f4xx_hal_msp.c ****     hdma_tim2_ch2_ch4.Init.Direction = DMA_MEMORY_TO_PERIPH;
 332              		.loc 1 177 36 is_stmt 0 view .LVU75
 333 0036 4FF0C062 		mov	r2, #100663296
 334 003a 4260     		str	r2, [r0, #4]
 178:Core/Src/stm32f4xx_hal_msp.c ****     hdma_tim2_ch2_ch4.Init.PeriphInc = DMA_PINC_DISABLE;
 335              		.loc 1 178 5 is_stmt 1 view .LVU76
 178:Core/Src/stm32f4xx_hal_msp.c ****     hdma_tim2_ch2_ch4.Init.PeriphInc = DMA_PINC_DISABLE;
 336              		.loc 1 178 38 is_stmt 0 view .LVU77
 337 003c 4022     		movs	r2, #64
 338 003e 8260     		str	r2, [r0, #8]
 179:Core/Src/stm32f4xx_hal_msp.c ****     hdma_tim2_ch2_ch4.Init.MemInc = DMA_MINC_ENABLE;
 339              		.loc 1 179 5 is_stmt 1 view .LVU78
 179:Core/Src/stm32f4xx_hal_msp.c ****     hdma_tim2_ch2_ch4.Init.MemInc = DMA_MINC_ENABLE;
 340              		.loc 1 179 38 is_stmt 0 view .LVU79
 341 0040 C360     		str	r3, [r0, #12]
 180:Core/Src/stm32f4xx_hal_msp.c ****     hdma_tim2_ch2_ch4.Init.PeriphDataAlignment = DMA_PDATAALIGN_WORD;
 342              		.loc 1 180 5 is_stmt 1 view .LVU80
 180:Core/Src/stm32f4xx_hal_msp.c ****     hdma_tim2_ch2_ch4.Init.PeriphDataAlignment = DMA_PDATAALIGN_WORD;
 343              		.loc 1 180 35 is_stmt 0 view .LVU81
 344 0042 4FF48062 		mov	r2, #1024
 345 0046 0261     		str	r2, [r0, #16]
 181:Core/Src/stm32f4xx_hal_msp.c ****     hdma_tim2_ch2_ch4.Init.MemDataAlignment = DMA_MDATAALIGN_WORD;
 346              		.loc 1 181 5 is_stmt 1 view .LVU82
 181:Core/Src/stm32f4xx_hal_msp.c ****     hdma_tim2_ch2_ch4.Init.MemDataAlignment = DMA_MDATAALIGN_WORD;
 347              		.loc 1 181 48 is_stmt 0 view .LVU83
 348 0048 4FF48052 		mov	r2, #4096
 349 004c 4261     		str	r2, [r0, #20]
 182:Core/Src/stm32f4xx_hal_msp.c ****     hdma_tim2_ch2_ch4.Init.Mode = DMA_NORMAL;
 350              		.loc 1 182 5 is_stmt 1 view .LVU84
 182:Core/Src/stm32f4xx_hal_msp.c ****     hdma_tim2_ch2_ch4.Init.Mode = DMA_NORMAL;
 351              		.loc 1 182 45 is_stmt 0 view .LVU85
 352 004e 4FF48042 		mov	r2, #16384
 353 0052 8261     		str	r2, [r0, #24]
 183:Core/Src/stm32f4xx_hal_msp.c ****     hdma_tim2_ch2_ch4.Init.Priority = DMA_PRIORITY_LOW;
 354              		.loc 1 183 5 is_stmt 1 view .LVU86
 183:Core/Src/stm32f4xx_hal_msp.c ****     hdma_tim2_ch2_ch4.Init.Priority = DMA_PRIORITY_LOW;
 355              		.loc 1 183 33 is_stmt 0 view .LVU87
 356 0054 C361     		str	r3, [r0, #28]
 184:Core/Src/stm32f4xx_hal_msp.c ****     hdma_tim2_ch2_ch4.Init.FIFOMode = DMA_FIFOMODE_DISABLE;
 357              		.loc 1 184 5 is_stmt 1 view .LVU88
 184:Core/Src/stm32f4xx_hal_msp.c ****     hdma_tim2_ch2_ch4.Init.FIFOMode = DMA_FIFOMODE_DISABLE;
 358              		.loc 1 184 37 is_stmt 0 view .LVU89
 359 0056 0362     		str	r3, [r0, #32]
 185:Core/Src/stm32f4xx_hal_msp.c ****     if (HAL_DMA_Init(&hdma_tim2_ch2_ch4) != HAL_OK)
 360              		.loc 1 185 5 is_stmt 1 view .LVU90
 185:Core/Src/stm32f4xx_hal_msp.c ****     if (HAL_DMA_Init(&hdma_tim2_ch2_ch4) != HAL_OK)
 361              		.loc 1 185 37 is_stmt 0 view .LVU91
 362 0058 4362     		str	r3, [r0, #36]
 186:Core/Src/stm32f4xx_hal_msp.c ****     {
 363              		.loc 1 186 5 is_stmt 1 view .LVU92
 186:Core/Src/stm32f4xx_hal_msp.c ****     {
 364              		.loc 1 186 9 is_stmt 0 view .LVU93
ARM GAS  C:\Users\pc\AppData\Local\Temp\ccttY3Fi.s 			page 13


 365 005a FFF7FEFF 		bl	HAL_DMA_Init
 366              	.LVL14:
 186:Core/Src/stm32f4xx_hal_msp.c ****     {
 367              		.loc 1 186 8 view .LVU94
 368 005e 18BB     		cbnz	r0, .L30
 369              	.L22:
 193:Core/Src/stm32f4xx_hal_msp.c ****     __HAL_LINKDMA(htim_base,hdma[TIM_DMA_ID_CC4],hdma_tim2_ch2_ch4);
 370              		.loc 1 193 5 is_stmt 1 view .LVU95
 193:Core/Src/stm32f4xx_hal_msp.c ****     __HAL_LINKDMA(htim_base,hdma[TIM_DMA_ID_CC4],hdma_tim2_ch2_ch4);
 371              		.loc 1 193 5 view .LVU96
 372 0060 3D4B     		ldr	r3, .L34+8
 373 0062 A362     		str	r3, [r4, #40]
 193:Core/Src/stm32f4xx_hal_msp.c ****     __HAL_LINKDMA(htim_base,hdma[TIM_DMA_ID_CC4],hdma_tim2_ch2_ch4);
 374              		.loc 1 193 5 view .LVU97
 375 0064 9C63     		str	r4, [r3, #56]
 193:Core/Src/stm32f4xx_hal_msp.c ****     __HAL_LINKDMA(htim_base,hdma[TIM_DMA_ID_CC4],hdma_tim2_ch2_ch4);
 376              		.loc 1 193 5 view .LVU98
 194:Core/Src/stm32f4xx_hal_msp.c **** 
 377              		.loc 1 194 5 view .LVU99
 194:Core/Src/stm32f4xx_hal_msp.c **** 
 378              		.loc 1 194 5 view .LVU100
 379 0066 2363     		str	r3, [r4, #48]
 194:Core/Src/stm32f4xx_hal_msp.c **** 
 380              		.loc 1 194 5 view .LVU101
 381 0068 9C63     		str	r4, [r3, #56]
 194:Core/Src/stm32f4xx_hal_msp.c **** 
 382              		.loc 1 194 5 view .LVU102
 197:Core/Src/stm32f4xx_hal_msp.c ****     hdma_tim2_up_ch3.Init.Channel = DMA_CHANNEL_3;
 383              		.loc 1 197 5 view .LVU103
 197:Core/Src/stm32f4xx_hal_msp.c ****     hdma_tim2_up_ch3.Init.Channel = DMA_CHANNEL_3;
 384              		.loc 1 197 31 is_stmt 0 view .LVU104
 385 006a 3D48     		ldr	r0, .L34+16
 386 006c 3D4B     		ldr	r3, .L34+20
 387 006e 0360     		str	r3, [r0]
 198:Core/Src/stm32f4xx_hal_msp.c ****     hdma_tim2_up_ch3.Init.Direction = DMA_MEMORY_TO_PERIPH;
 388              		.loc 1 198 5 is_stmt 1 view .LVU105
 198:Core/Src/stm32f4xx_hal_msp.c ****     hdma_tim2_up_ch3.Init.Direction = DMA_MEMORY_TO_PERIPH;
 389              		.loc 1 198 35 is_stmt 0 view .LVU106
 390 0070 4FF0C063 		mov	r3, #100663296
 391 0074 4360     		str	r3, [r0, #4]
 199:Core/Src/stm32f4xx_hal_msp.c ****     hdma_tim2_up_ch3.Init.PeriphInc = DMA_PINC_DISABLE;
 392              		.loc 1 199 5 is_stmt 1 view .LVU107
 199:Core/Src/stm32f4xx_hal_msp.c ****     hdma_tim2_up_ch3.Init.PeriphInc = DMA_PINC_DISABLE;
 393              		.loc 1 199 37 is_stmt 0 view .LVU108
 394 0076 4023     		movs	r3, #64
 395 0078 8360     		str	r3, [r0, #8]
 200:Core/Src/stm32f4xx_hal_msp.c ****     hdma_tim2_up_ch3.Init.MemInc = DMA_MINC_ENABLE;
 396              		.loc 1 200 5 is_stmt 1 view .LVU109
 200:Core/Src/stm32f4xx_hal_msp.c ****     hdma_tim2_up_ch3.Init.MemInc = DMA_MINC_ENABLE;
 397              		.loc 1 200 37 is_stmt 0 view .LVU110
 398 007a 0023     		movs	r3, #0
 399 007c C360     		str	r3, [r0, #12]
 201:Core/Src/stm32f4xx_hal_msp.c ****     hdma_tim2_up_ch3.Init.PeriphDataAlignment = DMA_PDATAALIGN_WORD;
 400              		.loc 1 201 5 is_stmt 1 view .LVU111
 201:Core/Src/stm32f4xx_hal_msp.c ****     hdma_tim2_up_ch3.Init.PeriphDataAlignment = DMA_PDATAALIGN_WORD;
 401              		.loc 1 201 34 is_stmt 0 view .LVU112
 402 007e 4FF48062 		mov	r2, #1024
ARM GAS  C:\Users\pc\AppData\Local\Temp\ccttY3Fi.s 			page 14


 403 0082 0261     		str	r2, [r0, #16]
 202:Core/Src/stm32f4xx_hal_msp.c ****     hdma_tim2_up_ch3.Init.MemDataAlignment = DMA_MDATAALIGN_WORD;
 404              		.loc 1 202 5 is_stmt 1 view .LVU113
 202:Core/Src/stm32f4xx_hal_msp.c ****     hdma_tim2_up_ch3.Init.MemDataAlignment = DMA_MDATAALIGN_WORD;
 405              		.loc 1 202 47 is_stmt 0 view .LVU114
 406 0084 4FF48052 		mov	r2, #4096
 407 0088 4261     		str	r2, [r0, #20]
 203:Core/Src/stm32f4xx_hal_msp.c ****     hdma_tim2_up_ch3.Init.Mode = DMA_NORMAL;
 408              		.loc 1 203 5 is_stmt 1 view .LVU115
 203:Core/Src/stm32f4xx_hal_msp.c ****     hdma_tim2_up_ch3.Init.Mode = DMA_NORMAL;
 409              		.loc 1 203 44 is_stmt 0 view .LVU116
 410 008a 4FF48042 		mov	r2, #16384
 411 008e 8261     		str	r2, [r0, #24]
 204:Core/Src/stm32f4xx_hal_msp.c ****     hdma_tim2_up_ch3.Init.Priority = DMA_PRIORITY_LOW;
 412              		.loc 1 204 5 is_stmt 1 view .LVU117
 204:Core/Src/stm32f4xx_hal_msp.c ****     hdma_tim2_up_ch3.Init.Priority = DMA_PRIORITY_LOW;
 413              		.loc 1 204 32 is_stmt 0 view .LVU118
 414 0090 C361     		str	r3, [r0, #28]
 205:Core/Src/stm32f4xx_hal_msp.c ****     hdma_tim2_up_ch3.Init.FIFOMode = DMA_FIFOMODE_DISABLE;
 415              		.loc 1 205 5 is_stmt 1 view .LVU119
 205:Core/Src/stm32f4xx_hal_msp.c ****     hdma_tim2_up_ch3.Init.FIFOMode = DMA_FIFOMODE_DISABLE;
 416              		.loc 1 205 36 is_stmt 0 view .LVU120
 417 0092 0362     		str	r3, [r0, #32]
 206:Core/Src/stm32f4xx_hal_msp.c ****     if (HAL_DMA_Init(&hdma_tim2_up_ch3) != HAL_OK)
 418              		.loc 1 206 5 is_stmt 1 view .LVU121
 206:Core/Src/stm32f4xx_hal_msp.c ****     if (HAL_DMA_Init(&hdma_tim2_up_ch3) != HAL_OK)
 419              		.loc 1 206 36 is_stmt 0 view .LVU122
 420 0094 4362     		str	r3, [r0, #36]
 207:Core/Src/stm32f4xx_hal_msp.c ****     {
 421              		.loc 1 207 5 is_stmt 1 view .LVU123
 207:Core/Src/stm32f4xx_hal_msp.c ****     {
 422              		.loc 1 207 9 is_stmt 0 view .LVU124
 423 0096 FFF7FEFF 		bl	HAL_DMA_Init
 424              	.LVL15:
 207:Core/Src/stm32f4xx_hal_msp.c ****     {
 425              		.loc 1 207 8 view .LVU125
 426 009a 40B9     		cbnz	r0, .L31
 427              	.L23:
 214:Core/Src/stm32f4xx_hal_msp.c ****     __HAL_LINKDMA(htim_base,hdma[TIM_DMA_ID_CC3],hdma_tim2_up_ch3);
 428              		.loc 1 214 5 is_stmt 1 view .LVU126
 214:Core/Src/stm32f4xx_hal_msp.c ****     __HAL_LINKDMA(htim_base,hdma[TIM_DMA_ID_CC3],hdma_tim2_up_ch3);
 429              		.loc 1 214 5 view .LVU127
 430 009c 304B     		ldr	r3, .L34+16
 431 009e 2362     		str	r3, [r4, #32]
 214:Core/Src/stm32f4xx_hal_msp.c ****     __HAL_LINKDMA(htim_base,hdma[TIM_DMA_ID_CC3],hdma_tim2_up_ch3);
 432              		.loc 1 214 5 view .LVU128
 433 00a0 9C63     		str	r4, [r3, #56]
 214:Core/Src/stm32f4xx_hal_msp.c ****     __HAL_LINKDMA(htim_base,hdma[TIM_DMA_ID_CC3],hdma_tim2_up_ch3);
 434              		.loc 1 214 5 view .LVU129
 215:Core/Src/stm32f4xx_hal_msp.c **** 
 435              		.loc 1 215 5 view .LVU130
 215:Core/Src/stm32f4xx_hal_msp.c **** 
 436              		.loc 1 215 5 view .LVU131
 437 00a2 E362     		str	r3, [r4, #44]
 215:Core/Src/stm32f4xx_hal_msp.c **** 
 438              		.loc 1 215 5 view .LVU132
 439 00a4 9C63     		str	r4, [r3, #56]
ARM GAS  C:\Users\pc\AppData\Local\Temp\ccttY3Fi.s 			page 15


 215:Core/Src/stm32f4xx_hal_msp.c **** 
 440              		.loc 1 215 5 view .LVU133
 441 00a6 B5E7     		b	.L20
 442              	.L30:
 188:Core/Src/stm32f4xx_hal_msp.c ****     }
 443              		.loc 1 188 7 view .LVU134
 444 00a8 FFF7FEFF 		bl	Error_Handler
 445              	.LVL16:
 446 00ac D8E7     		b	.L22
 447              	.L31:
 209:Core/Src/stm32f4xx_hal_msp.c ****     }
 448              		.loc 1 209 7 view .LVU135
 449 00ae FFF7FEFF 		bl	Error_Handler
 450              	.LVL17:
 451 00b2 F3E7     		b	.L23
 452              	.LVL18:
 453              	.L29:
 227:Core/Src/stm32f4xx_hal_msp.c **** 
 454              		.loc 1 227 5 view .LVU136
 455              	.LBB7:
 227:Core/Src/stm32f4xx_hal_msp.c **** 
 456              		.loc 1 227 5 view .LVU137
 457 00b4 0023     		movs	r3, #0
 458 00b6 0193     		str	r3, [sp, #4]
 227:Core/Src/stm32f4xx_hal_msp.c **** 
 459              		.loc 1 227 5 view .LVU138
 460 00b8 02F50D32 		add	r2, r2, #144384
 461 00bc 116C     		ldr	r1, [r2, #64]
 462 00be 41F00201 		orr	r1, r1, #2
 463 00c2 1164     		str	r1, [r2, #64]
 227:Core/Src/stm32f4xx_hal_msp.c **** 
 464              		.loc 1 227 5 view .LVU139
 465 00c4 126C     		ldr	r2, [r2, #64]
 466 00c6 02F00202 		and	r2, r2, #2
 467 00ca 0192     		str	r2, [sp, #4]
 227:Core/Src/stm32f4xx_hal_msp.c **** 
 468              		.loc 1 227 5 view .LVU140
 469 00cc 019A     		ldr	r2, [sp, #4]
 470              	.LBE7:
 227:Core/Src/stm32f4xx_hal_msp.c **** 
 471              		.loc 1 227 5 view .LVU141
 231:Core/Src/stm32f4xx_hal_msp.c ****     hdma_tim3_ch2.Init.Channel = DMA_CHANNEL_5;
 472              		.loc 1 231 5 view .LVU142
 231:Core/Src/stm32f4xx_hal_msp.c ****     hdma_tim3_ch2.Init.Channel = DMA_CHANNEL_5;
 473              		.loc 1 231 28 is_stmt 0 view .LVU143
 474 00ce 2648     		ldr	r0, .L34+24
 475              	.LVL19:
 231:Core/Src/stm32f4xx_hal_msp.c ****     hdma_tim3_ch2.Init.Channel = DMA_CHANNEL_5;
 476              		.loc 1 231 28 view .LVU144
 477 00d0 264A     		ldr	r2, .L34+28
 478 00d2 0260     		str	r2, [r0]
 232:Core/Src/stm32f4xx_hal_msp.c ****     hdma_tim3_ch2.Init.Direction = DMA_MEMORY_TO_PERIPH;
 479              		.loc 1 232 5 is_stmt 1 view .LVU145
 232:Core/Src/stm32f4xx_hal_msp.c ****     hdma_tim3_ch2.Init.Direction = DMA_MEMORY_TO_PERIPH;
 480              		.loc 1 232 32 is_stmt 0 view .LVU146
 481 00d4 4FF02062 		mov	r2, #167772160
 482 00d8 4260     		str	r2, [r0, #4]
ARM GAS  C:\Users\pc\AppData\Local\Temp\ccttY3Fi.s 			page 16


 233:Core/Src/stm32f4xx_hal_msp.c ****     hdma_tim3_ch2.Init.PeriphInc = DMA_PINC_DISABLE;
 483              		.loc 1 233 5 is_stmt 1 view .LVU147
 233:Core/Src/stm32f4xx_hal_msp.c ****     hdma_tim3_ch2.Init.PeriphInc = DMA_PINC_DISABLE;
 484              		.loc 1 233 34 is_stmt 0 view .LVU148
 485 00da 4022     		movs	r2, #64
 486 00dc 8260     		str	r2, [r0, #8]
 234:Core/Src/stm32f4xx_hal_msp.c ****     hdma_tim3_ch2.Init.MemInc = DMA_MINC_ENABLE;
 487              		.loc 1 234 5 is_stmt 1 view .LVU149
 234:Core/Src/stm32f4xx_hal_msp.c ****     hdma_tim3_ch2.Init.MemInc = DMA_MINC_ENABLE;
 488              		.loc 1 234 34 is_stmt 0 view .LVU150
 489 00de C360     		str	r3, [r0, #12]
 235:Core/Src/stm32f4xx_hal_msp.c ****     hdma_tim3_ch2.Init.PeriphDataAlignment = DMA_PDATAALIGN_HALFWORD;
 490              		.loc 1 235 5 is_stmt 1 view .LVU151
 235:Core/Src/stm32f4xx_hal_msp.c ****     hdma_tim3_ch2.Init.PeriphDataAlignment = DMA_PDATAALIGN_HALFWORD;
 491              		.loc 1 235 31 is_stmt 0 view .LVU152
 492 00e0 4FF48062 		mov	r2, #1024
 493 00e4 0261     		str	r2, [r0, #16]
 236:Core/Src/stm32f4xx_hal_msp.c ****     hdma_tim3_ch2.Init.MemDataAlignment = DMA_MDATAALIGN_HALFWORD;
 494              		.loc 1 236 5 is_stmt 1 view .LVU153
 236:Core/Src/stm32f4xx_hal_msp.c ****     hdma_tim3_ch2.Init.MemDataAlignment = DMA_MDATAALIGN_HALFWORD;
 495              		.loc 1 236 44 is_stmt 0 view .LVU154
 496 00e6 4FF40062 		mov	r2, #2048
 497 00ea 4261     		str	r2, [r0, #20]
 237:Core/Src/stm32f4xx_hal_msp.c ****     hdma_tim3_ch2.Init.Mode = DMA_NORMAL;
 498              		.loc 1 237 5 is_stmt 1 view .LVU155
 237:Core/Src/stm32f4xx_hal_msp.c ****     hdma_tim3_ch2.Init.Mode = DMA_NORMAL;
 499              		.loc 1 237 41 is_stmt 0 view .LVU156
 500 00ec 4FF40052 		mov	r2, #8192
 501 00f0 8261     		str	r2, [r0, #24]
 238:Core/Src/stm32f4xx_hal_msp.c ****     hdma_tim3_ch2.Init.Priority = DMA_PRIORITY_LOW;
 502              		.loc 1 238 5 is_stmt 1 view .LVU157
 238:Core/Src/stm32f4xx_hal_msp.c ****     hdma_tim3_ch2.Init.Priority = DMA_PRIORITY_LOW;
 503              		.loc 1 238 29 is_stmt 0 view .LVU158
 504 00f2 C361     		str	r3, [r0, #28]
 239:Core/Src/stm32f4xx_hal_msp.c ****     hdma_tim3_ch2.Init.FIFOMode = DMA_FIFOMODE_DISABLE;
 505              		.loc 1 239 5 is_stmt 1 view .LVU159
 239:Core/Src/stm32f4xx_hal_msp.c ****     hdma_tim3_ch2.Init.FIFOMode = DMA_FIFOMODE_DISABLE;
 506              		.loc 1 239 33 is_stmt 0 view .LVU160
 507 00f4 0362     		str	r3, [r0, #32]
 240:Core/Src/stm32f4xx_hal_msp.c ****     if (HAL_DMA_Init(&hdma_tim3_ch2) != HAL_OK)
 508              		.loc 1 240 5 is_stmt 1 view .LVU161
 240:Core/Src/stm32f4xx_hal_msp.c ****     if (HAL_DMA_Init(&hdma_tim3_ch2) != HAL_OK)
 509              		.loc 1 240 33 is_stmt 0 view .LVU162
 510 00f6 4362     		str	r3, [r0, #36]
 241:Core/Src/stm32f4xx_hal_msp.c ****     {
 511              		.loc 1 241 5 is_stmt 1 view .LVU163
 241:Core/Src/stm32f4xx_hal_msp.c ****     {
 512              		.loc 1 241 9 is_stmt 0 view .LVU164
 513 00f8 FFF7FEFF 		bl	HAL_DMA_Init
 514              	.LVL20:
 241:Core/Src/stm32f4xx_hal_msp.c ****     {
 515              		.loc 1 241 8 view .LVU165
 516 00fc 08BB     		cbnz	r0, .L32
 517              	.L25:
 246:Core/Src/stm32f4xx_hal_msp.c **** 
 518              		.loc 1 246 5 is_stmt 1 view .LVU166
 246:Core/Src/stm32f4xx_hal_msp.c **** 
ARM GAS  C:\Users\pc\AppData\Local\Temp\ccttY3Fi.s 			page 17


 519              		.loc 1 246 5 view .LVU167
 520 00fe 1A4B     		ldr	r3, .L34+24
 521 0100 A362     		str	r3, [r4, #40]
 246:Core/Src/stm32f4xx_hal_msp.c **** 
 522              		.loc 1 246 5 view .LVU168
 523 0102 9C63     		str	r4, [r3, #56]
 246:Core/Src/stm32f4xx_hal_msp.c **** 
 524              		.loc 1 246 5 view .LVU169
 249:Core/Src/stm32f4xx_hal_msp.c ****     hdma_tim3_ch1_trig.Init.Channel = DMA_CHANNEL_5;
 525              		.loc 1 249 5 view .LVU170
 249:Core/Src/stm32f4xx_hal_msp.c ****     hdma_tim3_ch1_trig.Init.Channel = DMA_CHANNEL_5;
 526              		.loc 1 249 33 is_stmt 0 view .LVU171
 527 0104 1A48     		ldr	r0, .L34+32
 528 0106 1B4B     		ldr	r3, .L34+36
 529 0108 0360     		str	r3, [r0]
 250:Core/Src/stm32f4xx_hal_msp.c ****     hdma_tim3_ch1_trig.Init.Direction = DMA_MEMORY_TO_PERIPH;
 530              		.loc 1 250 5 is_stmt 1 view .LVU172
 250:Core/Src/stm32f4xx_hal_msp.c ****     hdma_tim3_ch1_trig.Init.Direction = DMA_MEMORY_TO_PERIPH;
 531              		.loc 1 250 37 is_stmt 0 view .LVU173
 532 010a 4FF02063 		mov	r3, #167772160
 533 010e 4360     		str	r3, [r0, #4]
 251:Core/Src/stm32f4xx_hal_msp.c ****     hdma_tim3_ch1_trig.Init.PeriphInc = DMA_PINC_DISABLE;
 534              		.loc 1 251 5 is_stmt 1 view .LVU174
 251:Core/Src/stm32f4xx_hal_msp.c ****     hdma_tim3_ch1_trig.Init.PeriphInc = DMA_PINC_DISABLE;
 535              		.loc 1 251 39 is_stmt 0 view .LVU175
 536 0110 4023     		movs	r3, #64
 537 0112 8360     		str	r3, [r0, #8]
 252:Core/Src/stm32f4xx_hal_msp.c ****     hdma_tim3_ch1_trig.Init.MemInc = DMA_MINC_ENABLE;
 538              		.loc 1 252 5 is_stmt 1 view .LVU176
 252:Core/Src/stm32f4xx_hal_msp.c ****     hdma_tim3_ch1_trig.Init.MemInc = DMA_MINC_ENABLE;
 539              		.loc 1 252 39 is_stmt 0 view .LVU177
 540 0114 0023     		movs	r3, #0
 541 0116 C360     		str	r3, [r0, #12]
 253:Core/Src/stm32f4xx_hal_msp.c ****     hdma_tim3_ch1_trig.Init.PeriphDataAlignment = DMA_PDATAALIGN_HALFWORD;
 542              		.loc 1 253 5 is_stmt 1 view .LVU178
 253:Core/Src/stm32f4xx_hal_msp.c ****     hdma_tim3_ch1_trig.Init.PeriphDataAlignment = DMA_PDATAALIGN_HALFWORD;
 543              		.loc 1 253 36 is_stmt 0 view .LVU179
 544 0118 4FF48062 		mov	r2, #1024
 545 011c 0261     		str	r2, [r0, #16]
 254:Core/Src/stm32f4xx_hal_msp.c ****     hdma_tim3_ch1_trig.Init.MemDataAlignment = DMA_MDATAALIGN_HALFWORD;
 546              		.loc 1 254 5 is_stmt 1 view .LVU180
 254:Core/Src/stm32f4xx_hal_msp.c ****     hdma_tim3_ch1_trig.Init.MemDataAlignment = DMA_MDATAALIGN_HALFWORD;
 547              		.loc 1 254 49 is_stmt 0 view .LVU181
 548 011e 4FF40062 		mov	r2, #2048
 549 0122 4261     		str	r2, [r0, #20]
 255:Core/Src/stm32f4xx_hal_msp.c ****     hdma_tim3_ch1_trig.Init.Mode = DMA_NORMAL;
 550              		.loc 1 255 5 is_stmt 1 view .LVU182
 255:Core/Src/stm32f4xx_hal_msp.c ****     hdma_tim3_ch1_trig.Init.Mode = DMA_NORMAL;
 551              		.loc 1 255 46 is_stmt 0 view .LVU183
 552 0124 4FF40052 		mov	r2, #8192
 553 0128 8261     		str	r2, [r0, #24]
 256:Core/Src/stm32f4xx_hal_msp.c ****     hdma_tim3_ch1_trig.Init.Priority = DMA_PRIORITY_LOW;
 554              		.loc 1 256 5 is_stmt 1 view .LVU184
 256:Core/Src/stm32f4xx_hal_msp.c ****     hdma_tim3_ch1_trig.Init.Priority = DMA_PRIORITY_LOW;
 555              		.loc 1 256 34 is_stmt 0 view .LVU185
 556 012a C361     		str	r3, [r0, #28]
 257:Core/Src/stm32f4xx_hal_msp.c ****     hdma_tim3_ch1_trig.Init.FIFOMode = DMA_FIFOMODE_DISABLE;
ARM GAS  C:\Users\pc\AppData\Local\Temp\ccttY3Fi.s 			page 18


 557              		.loc 1 257 5 is_stmt 1 view .LVU186
 257:Core/Src/stm32f4xx_hal_msp.c ****     hdma_tim3_ch1_trig.Init.FIFOMode = DMA_FIFOMODE_DISABLE;
 558              		.loc 1 257 38 is_stmt 0 view .LVU187
 559 012c 0362     		str	r3, [r0, #32]
 258:Core/Src/stm32f4xx_hal_msp.c ****     if (HAL_DMA_Init(&hdma_tim3_ch1_trig) != HAL_OK)
 560              		.loc 1 258 5 is_stmt 1 view .LVU188
 258:Core/Src/stm32f4xx_hal_msp.c ****     if (HAL_DMA_Init(&hdma_tim3_ch1_trig) != HAL_OK)
 561              		.loc 1 258 38 is_stmt 0 view .LVU189
 562 012e 4362     		str	r3, [r0, #36]
 259:Core/Src/stm32f4xx_hal_msp.c ****     {
 563              		.loc 1 259 5 is_stmt 1 view .LVU190
 259:Core/Src/stm32f4xx_hal_msp.c ****     {
 564              		.loc 1 259 9 is_stmt 0 view .LVU191
 565 0130 FFF7FEFF 		bl	HAL_DMA_Init
 566              	.LVL21:
 259:Core/Src/stm32f4xx_hal_msp.c ****     {
 567              		.loc 1 259 8 view .LVU192
 568 0134 40B9     		cbnz	r0, .L33
 569              	.L26:
 266:Core/Src/stm32f4xx_hal_msp.c ****     __HAL_LINKDMA(htim_base,hdma[TIM_DMA_ID_TRIGGER],hdma_tim3_ch1_trig);
 570              		.loc 1 266 5 is_stmt 1 view .LVU193
 266:Core/Src/stm32f4xx_hal_msp.c ****     __HAL_LINKDMA(htim_base,hdma[TIM_DMA_ID_TRIGGER],hdma_tim3_ch1_trig);
 571              		.loc 1 266 5 view .LVU194
 572 0136 0E4B     		ldr	r3, .L34+32
 573 0138 6362     		str	r3, [r4, #36]
 266:Core/Src/stm32f4xx_hal_msp.c ****     __HAL_LINKDMA(htim_base,hdma[TIM_DMA_ID_TRIGGER],hdma_tim3_ch1_trig);
 574              		.loc 1 266 5 view .LVU195
 575 013a 9C63     		str	r4, [r3, #56]
 266:Core/Src/stm32f4xx_hal_msp.c ****     __HAL_LINKDMA(htim_base,hdma[TIM_DMA_ID_TRIGGER],hdma_tim3_ch1_trig);
 576              		.loc 1 266 5 view .LVU196
 267:Core/Src/stm32f4xx_hal_msp.c **** 
 577              		.loc 1 267 5 view .LVU197
 267:Core/Src/stm32f4xx_hal_msp.c **** 
 578              		.loc 1 267 5 view .LVU198
 579 013c A363     		str	r3, [r4, #56]
 267:Core/Src/stm32f4xx_hal_msp.c **** 
 580              		.loc 1 267 5 view .LVU199
 581 013e 9C63     		str	r4, [r3, #56]
 267:Core/Src/stm32f4xx_hal_msp.c **** 
 582              		.loc 1 267 5 view .LVU200
 583              		.loc 1 274 1 is_stmt 0 view .LVU201
 584 0140 68E7     		b	.L20
 585              	.L32:
 243:Core/Src/stm32f4xx_hal_msp.c ****     }
 586              		.loc 1 243 7 is_stmt 1 view .LVU202
 587 0142 FFF7FEFF 		bl	Error_Handler
 588              	.LVL22:
 589 0146 DAE7     		b	.L25
 590              	.L33:
 261:Core/Src/stm32f4xx_hal_msp.c ****     }
 591              		.loc 1 261 7 view .LVU203
 592 0148 FFF7FEFF 		bl	Error_Handler
 593              	.LVL23:
 594 014c F3E7     		b	.L26
 595              	.L35:
 596 014e 00BF     		.align	2
 597              	.L34:
ARM GAS  C:\Users\pc\AppData\Local\Temp\ccttY3Fi.s 			page 19


 598 0150 00040040 		.word	1073742848
 599 0154 00380240 		.word	1073887232
 600 0158 00000000 		.word	hdma_tim2_ch2_ch4
 601 015c A0600240 		.word	1073897632
 602 0160 00000000 		.word	hdma_tim2_up_ch3
 603 0164 28600240 		.word	1073897512
 604 0168 00000000 		.word	hdma_tim3_ch2
 605 016c 88600240 		.word	1073897608
 606 0170 00000000 		.word	hdma_tim3_ch1_trig
 607 0174 70600240 		.word	1073897584
 608              		.cfi_endproc
 609              	.LFE133:
 611              		.section	.text.HAL_TIM_MspPostInit,"ax",%progbits
 612              		.align	1
 613              		.global	HAL_TIM_MspPostInit
 614              		.syntax unified
 615              		.thumb
 616              		.thumb_func
 618              	HAL_TIM_MspPostInit:
 619              	.LVL24:
 620              	.LFB134:
 275:Core/Src/stm32f4xx_hal_msp.c **** 
 276:Core/Src/stm32f4xx_hal_msp.c **** void HAL_TIM_MspPostInit(TIM_HandleTypeDef* htim)
 277:Core/Src/stm32f4xx_hal_msp.c **** {
 621              		.loc 1 277 1 view -0
 622              		.cfi_startproc
 623              		@ args = 0, pretend = 0, frame = 32
 624              		@ frame_needed = 0, uses_anonymous_args = 0
 625              		.loc 1 277 1 is_stmt 0 view .LVU205
 626 0000 00B5     		push	{lr}
 627              		.cfi_def_cfa_offset 4
 628              		.cfi_offset 14, -4
 629 0002 89B0     		sub	sp, sp, #36
 630              		.cfi_def_cfa_offset 40
 278:Core/Src/stm32f4xx_hal_msp.c ****   GPIO_InitTypeDef GPIO_InitStruct = {0};
 631              		.loc 1 278 3 is_stmt 1 view .LVU206
 632              		.loc 1 278 20 is_stmt 0 view .LVU207
 633 0004 0023     		movs	r3, #0
 634 0006 0393     		str	r3, [sp, #12]
 635 0008 0493     		str	r3, [sp, #16]
 636 000a 0593     		str	r3, [sp, #20]
 637 000c 0693     		str	r3, [sp, #24]
 638 000e 0793     		str	r3, [sp, #28]
 279:Core/Src/stm32f4xx_hal_msp.c ****   if(htim->Instance==TIM2)
 639              		.loc 1 279 3 is_stmt 1 view .LVU208
 640              		.loc 1 279 10 is_stmt 0 view .LVU209
 641 0010 0368     		ldr	r3, [r0]
 642              		.loc 1 279 5 view .LVU210
 643 0012 B3F1804F 		cmp	r3, #1073741824
 644 0016 05D0     		beq	.L40
 280:Core/Src/stm32f4xx_hal_msp.c ****   {
 281:Core/Src/stm32f4xx_hal_msp.c ****   /* USER CODE BEGIN TIM2_MspPostInit 0 */
 282:Core/Src/stm32f4xx_hal_msp.c **** 
 283:Core/Src/stm32f4xx_hal_msp.c ****   /* USER CODE END TIM2_MspPostInit 0 */
 284:Core/Src/stm32f4xx_hal_msp.c ****     __HAL_RCC_GPIOB_CLK_ENABLE();
 285:Core/Src/stm32f4xx_hal_msp.c ****     /**TIM2 GPIO Configuration
 286:Core/Src/stm32f4xx_hal_msp.c ****     PB10     ------> TIM2_CH3
ARM GAS  C:\Users\pc\AppData\Local\Temp\ccttY3Fi.s 			page 20


 287:Core/Src/stm32f4xx_hal_msp.c ****     PB3     ------> TIM2_CH2
 288:Core/Src/stm32f4xx_hal_msp.c ****     */
 289:Core/Src/stm32f4xx_hal_msp.c ****     GPIO_InitStruct.Pin = GPIO_PIN_10|GPIO_PIN_3;
 290:Core/Src/stm32f4xx_hal_msp.c ****     GPIO_InitStruct.Mode = GPIO_MODE_AF_PP;
 291:Core/Src/stm32f4xx_hal_msp.c ****     GPIO_InitStruct.Pull = GPIO_NOPULL;
 292:Core/Src/stm32f4xx_hal_msp.c ****     GPIO_InitStruct.Speed = GPIO_SPEED_FREQ_LOW;
 293:Core/Src/stm32f4xx_hal_msp.c ****     GPIO_InitStruct.Alternate = GPIO_AF1_TIM2;
 294:Core/Src/stm32f4xx_hal_msp.c ****     HAL_GPIO_Init(GPIOB, &GPIO_InitStruct);
 295:Core/Src/stm32f4xx_hal_msp.c **** 
 296:Core/Src/stm32f4xx_hal_msp.c ****   /* USER CODE BEGIN TIM2_MspPostInit 1 */
 297:Core/Src/stm32f4xx_hal_msp.c **** 
 298:Core/Src/stm32f4xx_hal_msp.c ****   /* USER CODE END TIM2_MspPostInit 1 */
 299:Core/Src/stm32f4xx_hal_msp.c ****   }
 300:Core/Src/stm32f4xx_hal_msp.c ****   else if(htim->Instance==TIM3)
 645              		.loc 1 300 8 is_stmt 1 view .LVU211
 646              		.loc 1 300 10 is_stmt 0 view .LVU212
 647 0018 194A     		ldr	r2, .L42
 648 001a 9342     		cmp	r3, r2
 649 001c 1AD0     		beq	.L41
 650              	.LVL25:
 651              	.L36:
 301:Core/Src/stm32f4xx_hal_msp.c ****   {
 302:Core/Src/stm32f4xx_hal_msp.c ****   /* USER CODE BEGIN TIM3_MspPostInit 0 */
 303:Core/Src/stm32f4xx_hal_msp.c **** 
 304:Core/Src/stm32f4xx_hal_msp.c ****   /* USER CODE END TIM3_MspPostInit 0 */
 305:Core/Src/stm32f4xx_hal_msp.c **** 
 306:Core/Src/stm32f4xx_hal_msp.c ****     __HAL_RCC_GPIOB_CLK_ENABLE();
 307:Core/Src/stm32f4xx_hal_msp.c ****     /**TIM3 GPIO Configuration
 308:Core/Src/stm32f4xx_hal_msp.c ****     PB4     ------> TIM3_CH1
 309:Core/Src/stm32f4xx_hal_msp.c ****     PB5     ------> TIM3_CH2
 310:Core/Src/stm32f4xx_hal_msp.c ****     */
 311:Core/Src/stm32f4xx_hal_msp.c ****     GPIO_InitStruct.Pin = GPIO_PIN_4|GPIO_PIN_5;
 312:Core/Src/stm32f4xx_hal_msp.c ****     GPIO_InitStruct.Mode = GPIO_MODE_AF_PP;
 313:Core/Src/stm32f4xx_hal_msp.c ****     GPIO_InitStruct.Pull = GPIO_NOPULL;
 314:Core/Src/stm32f4xx_hal_msp.c ****     GPIO_InitStruct.Speed = GPIO_SPEED_FREQ_LOW;
 315:Core/Src/stm32f4xx_hal_msp.c ****     GPIO_InitStruct.Alternate = GPIO_AF2_TIM3;
 316:Core/Src/stm32f4xx_hal_msp.c ****     HAL_GPIO_Init(GPIOB, &GPIO_InitStruct);
 317:Core/Src/stm32f4xx_hal_msp.c **** 
 318:Core/Src/stm32f4xx_hal_msp.c ****   /* USER CODE BEGIN TIM3_MspPostInit 1 */
 319:Core/Src/stm32f4xx_hal_msp.c **** 
 320:Core/Src/stm32f4xx_hal_msp.c ****   /* USER CODE END TIM3_MspPostInit 1 */
 321:Core/Src/stm32f4xx_hal_msp.c ****   }
 322:Core/Src/stm32f4xx_hal_msp.c **** 
 323:Core/Src/stm32f4xx_hal_msp.c **** }
 652              		.loc 1 323 1 view .LVU213
 653 001e 09B0     		add	sp, sp, #36
 654              		.cfi_remember_state
 655              		.cfi_def_cfa_offset 4
 656              		@ sp needed
 657 0020 5DF804FB 		ldr	pc, [sp], #4
 658              	.LVL26:
 659              	.L40:
 660              		.cfi_restore_state
 284:Core/Src/stm32f4xx_hal_msp.c ****     /**TIM2 GPIO Configuration
 661              		.loc 1 284 5 is_stmt 1 view .LVU214
 662              	.LBB8:
 284:Core/Src/stm32f4xx_hal_msp.c ****     /**TIM2 GPIO Configuration
ARM GAS  C:\Users\pc\AppData\Local\Temp\ccttY3Fi.s 			page 21


 663              		.loc 1 284 5 view .LVU215
 664 0024 0023     		movs	r3, #0
 665 0026 0193     		str	r3, [sp, #4]
 284:Core/Src/stm32f4xx_hal_msp.c ****     /**TIM2 GPIO Configuration
 666              		.loc 1 284 5 view .LVU216
 667 0028 164B     		ldr	r3, .L42+4
 668 002a 1A6B     		ldr	r2, [r3, #48]
 669 002c 42F00202 		orr	r2, r2, #2
 670 0030 1A63     		str	r2, [r3, #48]
 284:Core/Src/stm32f4xx_hal_msp.c ****     /**TIM2 GPIO Configuration
 671              		.loc 1 284 5 view .LVU217
 672 0032 1B6B     		ldr	r3, [r3, #48]
 673 0034 03F00203 		and	r3, r3, #2
 674 0038 0193     		str	r3, [sp, #4]
 284:Core/Src/stm32f4xx_hal_msp.c ****     /**TIM2 GPIO Configuration
 675              		.loc 1 284 5 view .LVU218
 676 003a 019B     		ldr	r3, [sp, #4]
 677              	.LBE8:
 284:Core/Src/stm32f4xx_hal_msp.c ****     /**TIM2 GPIO Configuration
 678              		.loc 1 284 5 view .LVU219
 289:Core/Src/stm32f4xx_hal_msp.c ****     GPIO_InitStruct.Mode = GPIO_MODE_AF_PP;
 679              		.loc 1 289 5 view .LVU220
 289:Core/Src/stm32f4xx_hal_msp.c ****     GPIO_InitStruct.Mode = GPIO_MODE_AF_PP;
 680              		.loc 1 289 25 is_stmt 0 view .LVU221
 681 003c 4FF48163 		mov	r3, #1032
 682 0040 0393     		str	r3, [sp, #12]
 290:Core/Src/stm32f4xx_hal_msp.c ****     GPIO_InitStruct.Pull = GPIO_NOPULL;
 683              		.loc 1 290 5 is_stmt 1 view .LVU222
 290:Core/Src/stm32f4xx_hal_msp.c ****     GPIO_InitStruct.Pull = GPIO_NOPULL;
 684              		.loc 1 290 26 is_stmt 0 view .LVU223
 685 0042 0223     		movs	r3, #2
 686 0044 0493     		str	r3, [sp, #16]
 291:Core/Src/stm32f4xx_hal_msp.c ****     GPIO_InitStruct.Speed = GPIO_SPEED_FREQ_LOW;
 687              		.loc 1 291 5 is_stmt 1 view .LVU224
 292:Core/Src/stm32f4xx_hal_msp.c ****     GPIO_InitStruct.Alternate = GPIO_AF1_TIM2;
 688              		.loc 1 292 5 view .LVU225
 293:Core/Src/stm32f4xx_hal_msp.c ****     HAL_GPIO_Init(GPIOB, &GPIO_InitStruct);
 689              		.loc 1 293 5 view .LVU226
 293:Core/Src/stm32f4xx_hal_msp.c ****     HAL_GPIO_Init(GPIOB, &GPIO_InitStruct);
 690              		.loc 1 293 31 is_stmt 0 view .LVU227
 691 0046 0123     		movs	r3, #1
 692 0048 0793     		str	r3, [sp, #28]
 294:Core/Src/stm32f4xx_hal_msp.c **** 
 693              		.loc 1 294 5 is_stmt 1 view .LVU228
 694 004a 03A9     		add	r1, sp, #12
 695 004c 0E48     		ldr	r0, .L42+8
 696              	.LVL27:
 294:Core/Src/stm32f4xx_hal_msp.c **** 
 697              		.loc 1 294 5 is_stmt 0 view .LVU229
 698 004e FFF7FEFF 		bl	HAL_GPIO_Init
 699              	.LVL28:
 700 0052 E4E7     		b	.L36
 701              	.LVL29:
 702              	.L41:
 306:Core/Src/stm32f4xx_hal_msp.c ****     /**TIM3 GPIO Configuration
 703              		.loc 1 306 5 is_stmt 1 view .LVU230
 704              	.LBB9:
ARM GAS  C:\Users\pc\AppData\Local\Temp\ccttY3Fi.s 			page 22


 306:Core/Src/stm32f4xx_hal_msp.c ****     /**TIM3 GPIO Configuration
 705              		.loc 1 306 5 view .LVU231
 706 0054 0023     		movs	r3, #0
 707 0056 0293     		str	r3, [sp, #8]
 306:Core/Src/stm32f4xx_hal_msp.c ****     /**TIM3 GPIO Configuration
 708              		.loc 1 306 5 view .LVU232
 709 0058 0A4B     		ldr	r3, .L42+4
 710 005a 1A6B     		ldr	r2, [r3, #48]
 711 005c 42F00202 		orr	r2, r2, #2
 712 0060 1A63     		str	r2, [r3, #48]
 306:Core/Src/stm32f4xx_hal_msp.c ****     /**TIM3 GPIO Configuration
 713              		.loc 1 306 5 view .LVU233
 714 0062 1B6B     		ldr	r3, [r3, #48]
 715 0064 03F00203 		and	r3, r3, #2
 716 0068 0293     		str	r3, [sp, #8]
 306:Core/Src/stm32f4xx_hal_msp.c ****     /**TIM3 GPIO Configuration
 717              		.loc 1 306 5 view .LVU234
 718 006a 029B     		ldr	r3, [sp, #8]
 719              	.LBE9:
 306:Core/Src/stm32f4xx_hal_msp.c ****     /**TIM3 GPIO Configuration
 720              		.loc 1 306 5 view .LVU235
 311:Core/Src/stm32f4xx_hal_msp.c ****     GPIO_InitStruct.Mode = GPIO_MODE_AF_PP;
 721              		.loc 1 311 5 view .LVU236
 311:Core/Src/stm32f4xx_hal_msp.c ****     GPIO_InitStruct.Mode = GPIO_MODE_AF_PP;
 722              		.loc 1 311 25 is_stmt 0 view .LVU237
 723 006c 3023     		movs	r3, #48
 724 006e 0393     		str	r3, [sp, #12]
 312:Core/Src/stm32f4xx_hal_msp.c ****     GPIO_InitStruct.Pull = GPIO_NOPULL;
 725              		.loc 1 312 5 is_stmt 1 view .LVU238
 312:Core/Src/stm32f4xx_hal_msp.c ****     GPIO_InitStruct.Pull = GPIO_NOPULL;
 726              		.loc 1 312 26 is_stmt 0 view .LVU239
 727 0070 0223     		movs	r3, #2
 728 0072 0493     		str	r3, [sp, #16]
 313:Core/Src/stm32f4xx_hal_msp.c ****     GPIO_InitStruct.Speed = GPIO_SPEED_FREQ_LOW;
 729              		.loc 1 313 5 is_stmt 1 view .LVU240
 314:Core/Src/stm32f4xx_hal_msp.c ****     GPIO_InitStruct.Alternate = GPIO_AF2_TIM3;
 730              		.loc 1 314 5 view .LVU241
 315:Core/Src/stm32f4xx_hal_msp.c ****     HAL_GPIO_Init(GPIOB, &GPIO_InitStruct);
 731              		.loc 1 315 5 view .LVU242
 315:Core/Src/stm32f4xx_hal_msp.c ****     HAL_GPIO_Init(GPIOB, &GPIO_InitStruct);
 732              		.loc 1 315 31 is_stmt 0 view .LVU243
 733 0074 0793     		str	r3, [sp, #28]
 316:Core/Src/stm32f4xx_hal_msp.c **** 
 734              		.loc 1 316 5 is_stmt 1 view .LVU244
 735 0076 03A9     		add	r1, sp, #12
 736 0078 0348     		ldr	r0, .L42+8
 737              	.LVL30:
 316:Core/Src/stm32f4xx_hal_msp.c **** 
 738              		.loc 1 316 5 is_stmt 0 view .LVU245
 739 007a FFF7FEFF 		bl	HAL_GPIO_Init
 740              	.LVL31:
 741              		.loc 1 323 1 view .LVU246
 742 007e CEE7     		b	.L36
 743              	.L43:
 744              		.align	2
 745              	.L42:
 746 0080 00040040 		.word	1073742848
ARM GAS  C:\Users\pc\AppData\Local\Temp\ccttY3Fi.s 			page 23


 747 0084 00380240 		.word	1073887232
 748 0088 00040240 		.word	1073873920
 749              		.cfi_endproc
 750              	.LFE134:
 752              		.section	.text.HAL_TIM_Base_MspDeInit,"ax",%progbits
 753              		.align	1
 754              		.global	HAL_TIM_Base_MspDeInit
 755              		.syntax unified
 756              		.thumb
 757              		.thumb_func
 759              	HAL_TIM_Base_MspDeInit:
 760              	.LVL32:
 761              	.LFB135:
 324:Core/Src/stm32f4xx_hal_msp.c **** /**
 325:Core/Src/stm32f4xx_hal_msp.c **** * @brief TIM_Base MSP De-Initialization
 326:Core/Src/stm32f4xx_hal_msp.c **** * This function freeze the hardware resources used in this example
 327:Core/Src/stm32f4xx_hal_msp.c **** * @param htim_base: TIM_Base handle pointer
 328:Core/Src/stm32f4xx_hal_msp.c **** * @retval None
 329:Core/Src/stm32f4xx_hal_msp.c **** */
 330:Core/Src/stm32f4xx_hal_msp.c **** void HAL_TIM_Base_MspDeInit(TIM_HandleTypeDef* htim_base)
 331:Core/Src/stm32f4xx_hal_msp.c **** {
 762              		.loc 1 331 1 is_stmt 1 view -0
 763              		.cfi_startproc
 764              		@ args = 0, pretend = 0, frame = 0
 765              		@ frame_needed = 0, uses_anonymous_args = 0
 766              		.loc 1 331 1 is_stmt 0 view .LVU248
 767 0000 10B5     		push	{r4, lr}
 768              		.cfi_def_cfa_offset 8
 769              		.cfi_offset 4, -8
 770              		.cfi_offset 14, -4
 771 0002 0446     		mov	r4, r0
 332:Core/Src/stm32f4xx_hal_msp.c ****   if(htim_base->Instance==TIM2)
 772              		.loc 1 332 3 is_stmt 1 view .LVU249
 773              		.loc 1 332 15 is_stmt 0 view .LVU250
 774 0004 0368     		ldr	r3, [r0]
 775              		.loc 1 332 5 view .LVU251
 776 0006 B3F1804F 		cmp	r3, #1073741824
 777 000a 03D0     		beq	.L48
 333:Core/Src/stm32f4xx_hal_msp.c ****   {
 334:Core/Src/stm32f4xx_hal_msp.c ****   /* USER CODE BEGIN TIM2_MspDeInit 0 */
 335:Core/Src/stm32f4xx_hal_msp.c **** 
 336:Core/Src/stm32f4xx_hal_msp.c ****   /* USER CODE END TIM2_MspDeInit 0 */
 337:Core/Src/stm32f4xx_hal_msp.c ****     /* Peripheral clock disable */
 338:Core/Src/stm32f4xx_hal_msp.c ****     __HAL_RCC_TIM2_CLK_DISABLE();
 339:Core/Src/stm32f4xx_hal_msp.c **** 
 340:Core/Src/stm32f4xx_hal_msp.c ****     /* TIM2 DMA DeInit */
 341:Core/Src/stm32f4xx_hal_msp.c ****     HAL_DMA_DeInit(htim_base->hdma[TIM_DMA_ID_CC2]);
 342:Core/Src/stm32f4xx_hal_msp.c ****     HAL_DMA_DeInit(htim_base->hdma[TIM_DMA_ID_CC4]);
 343:Core/Src/stm32f4xx_hal_msp.c ****     HAL_DMA_DeInit(htim_base->hdma[TIM_DMA_ID_UPDATE]);
 344:Core/Src/stm32f4xx_hal_msp.c ****     HAL_DMA_DeInit(htim_base->hdma[TIM_DMA_ID_CC3]);
 345:Core/Src/stm32f4xx_hal_msp.c ****   /* USER CODE BEGIN TIM2_MspDeInit 1 */
 346:Core/Src/stm32f4xx_hal_msp.c **** 
 347:Core/Src/stm32f4xx_hal_msp.c ****   /* USER CODE END TIM2_MspDeInit 1 */
 348:Core/Src/stm32f4xx_hal_msp.c ****   }
 349:Core/Src/stm32f4xx_hal_msp.c ****   else if(htim_base->Instance==TIM3)
 778              		.loc 1 349 8 is_stmt 1 view .LVU252
 779              		.loc 1 349 10 is_stmt 0 view .LVU253
ARM GAS  C:\Users\pc\AppData\Local\Temp\ccttY3Fi.s 			page 24


 780 000c 124A     		ldr	r2, .L50
 781 000e 9342     		cmp	r3, r2
 782 0010 12D0     		beq	.L49
 783              	.LVL33:
 784              	.L44:
 350:Core/Src/stm32f4xx_hal_msp.c ****   {
 351:Core/Src/stm32f4xx_hal_msp.c ****   /* USER CODE BEGIN TIM3_MspDeInit 0 */
 352:Core/Src/stm32f4xx_hal_msp.c **** 
 353:Core/Src/stm32f4xx_hal_msp.c ****   /* USER CODE END TIM3_MspDeInit 0 */
 354:Core/Src/stm32f4xx_hal_msp.c ****     /* Peripheral clock disable */
 355:Core/Src/stm32f4xx_hal_msp.c ****     __HAL_RCC_TIM3_CLK_DISABLE();
 356:Core/Src/stm32f4xx_hal_msp.c **** 
 357:Core/Src/stm32f4xx_hal_msp.c ****     /* TIM3 DMA DeInit */
 358:Core/Src/stm32f4xx_hal_msp.c ****     HAL_DMA_DeInit(htim_base->hdma[TIM_DMA_ID_CC2]);
 359:Core/Src/stm32f4xx_hal_msp.c ****     HAL_DMA_DeInit(htim_base->hdma[TIM_DMA_ID_CC1]);
 360:Core/Src/stm32f4xx_hal_msp.c ****     HAL_DMA_DeInit(htim_base->hdma[TIM_DMA_ID_TRIGGER]);
 361:Core/Src/stm32f4xx_hal_msp.c ****   /* USER CODE BEGIN TIM3_MspDeInit 1 */
 362:Core/Src/stm32f4xx_hal_msp.c **** 
 363:Core/Src/stm32f4xx_hal_msp.c ****   /* USER CODE END TIM3_MspDeInit 1 */
 364:Core/Src/stm32f4xx_hal_msp.c ****   }
 365:Core/Src/stm32f4xx_hal_msp.c **** 
 366:Core/Src/stm32f4xx_hal_msp.c **** }
 785              		.loc 1 366 1 view .LVU254
 786 0012 10BD     		pop	{r4, pc}
 787              	.LVL34:
 788              	.L48:
 338:Core/Src/stm32f4xx_hal_msp.c **** 
 789              		.loc 1 338 5 is_stmt 1 view .LVU255
 790 0014 114A     		ldr	r2, .L50+4
 791 0016 136C     		ldr	r3, [r2, #64]
 792 0018 23F00103 		bic	r3, r3, #1
 793 001c 1364     		str	r3, [r2, #64]
 341:Core/Src/stm32f4xx_hal_msp.c ****     HAL_DMA_DeInit(htim_base->hdma[TIM_DMA_ID_CC4]);
 794              		.loc 1 341 5 view .LVU256
 795 001e 806A     		ldr	r0, [r0, #40]
 796              	.LVL35:
 341:Core/Src/stm32f4xx_hal_msp.c ****     HAL_DMA_DeInit(htim_base->hdma[TIM_DMA_ID_CC4]);
 797              		.loc 1 341 5 is_stmt 0 view .LVU257
 798 0020 FFF7FEFF 		bl	HAL_DMA_DeInit
 799              	.LVL36:
 342:Core/Src/stm32f4xx_hal_msp.c ****     HAL_DMA_DeInit(htim_base->hdma[TIM_DMA_ID_UPDATE]);
 800              		.loc 1 342 5 is_stmt 1 view .LVU258
 801 0024 206B     		ldr	r0, [r4, #48]
 802 0026 FFF7FEFF 		bl	HAL_DMA_DeInit
 803              	.LVL37:
 343:Core/Src/stm32f4xx_hal_msp.c ****     HAL_DMA_DeInit(htim_base->hdma[TIM_DMA_ID_CC3]);
 804              		.loc 1 343 5 view .LVU259
 805 002a 206A     		ldr	r0, [r4, #32]
 806 002c FFF7FEFF 		bl	HAL_DMA_DeInit
 807              	.LVL38:
 344:Core/Src/stm32f4xx_hal_msp.c ****   /* USER CODE BEGIN TIM2_MspDeInit 1 */
 808              		.loc 1 344 5 view .LVU260
 809 0030 E06A     		ldr	r0, [r4, #44]
 810 0032 FFF7FEFF 		bl	HAL_DMA_DeInit
 811              	.LVL39:
 812 0036 ECE7     		b	.L44
 813              	.LVL40:
ARM GAS  C:\Users\pc\AppData\Local\Temp\ccttY3Fi.s 			page 25


 814              	.L49:
 355:Core/Src/stm32f4xx_hal_msp.c **** 
 815              		.loc 1 355 5 view .LVU261
 816 0038 02F50D32 		add	r2, r2, #144384
 817 003c 136C     		ldr	r3, [r2, #64]
 818 003e 23F00203 		bic	r3, r3, #2
 819 0042 1364     		str	r3, [r2, #64]
 358:Core/Src/stm32f4xx_hal_msp.c ****     HAL_DMA_DeInit(htim_base->hdma[TIM_DMA_ID_CC1]);
 820              		.loc 1 358 5 view .LVU262
 821 0044 806A     		ldr	r0, [r0, #40]
 822              	.LVL41:
 358:Core/Src/stm32f4xx_hal_msp.c ****     HAL_DMA_DeInit(htim_base->hdma[TIM_DMA_ID_CC1]);
 823              		.loc 1 358 5 is_stmt 0 view .LVU263
 824 0046 FFF7FEFF 		bl	HAL_DMA_DeInit
 825              	.LVL42:
 359:Core/Src/stm32f4xx_hal_msp.c ****     HAL_DMA_DeInit(htim_base->hdma[TIM_DMA_ID_TRIGGER]);
 826              		.loc 1 359 5 is_stmt 1 view .LVU264
 827 004a 606A     		ldr	r0, [r4, #36]
 828 004c FFF7FEFF 		bl	HAL_DMA_DeInit
 829              	.LVL43:
 360:Core/Src/stm32f4xx_hal_msp.c ****   /* USER CODE BEGIN TIM3_MspDeInit 1 */
 830              		.loc 1 360 5 view .LVU265
 831 0050 A06B     		ldr	r0, [r4, #56]
 832 0052 FFF7FEFF 		bl	HAL_DMA_DeInit
 833              	.LVL44:
 834              		.loc 1 366 1 is_stmt 0 view .LVU266
 835 0056 DCE7     		b	.L44
 836              	.L51:
 837              		.align	2
 838              	.L50:
 839 0058 00040040 		.word	1073742848
 840 005c 00380240 		.word	1073887232
 841              		.cfi_endproc
 842              	.LFE135:
 844              		.section	.text.HAL_UART_MspInit,"ax",%progbits
 845              		.align	1
 846              		.global	HAL_UART_MspInit
 847              		.syntax unified
 848              		.thumb
 849              		.thumb_func
 851              	HAL_UART_MspInit:
 852              	.LVL45:
 853              	.LFB136:
 367:Core/Src/stm32f4xx_hal_msp.c **** 
 368:Core/Src/stm32f4xx_hal_msp.c **** /**
 369:Core/Src/stm32f4xx_hal_msp.c **** * @brief UART MSP Initialization
 370:Core/Src/stm32f4xx_hal_msp.c **** * This function configures the hardware resources used in this example
 371:Core/Src/stm32f4xx_hal_msp.c **** * @param huart: UART handle pointer
 372:Core/Src/stm32f4xx_hal_msp.c **** * @retval None
 373:Core/Src/stm32f4xx_hal_msp.c **** */
 374:Core/Src/stm32f4xx_hal_msp.c **** void HAL_UART_MspInit(UART_HandleTypeDef* huart)
 375:Core/Src/stm32f4xx_hal_msp.c **** {
 854              		.loc 1 375 1 is_stmt 1 view -0
 855              		.cfi_startproc
 856              		@ args = 0, pretend = 0, frame = 40
 857              		@ frame_needed = 0, uses_anonymous_args = 0
 858              		.loc 1 375 1 is_stmt 0 view .LVU268
ARM GAS  C:\Users\pc\AppData\Local\Temp\ccttY3Fi.s 			page 26


 859 0000 10B5     		push	{r4, lr}
 860              		.cfi_def_cfa_offset 8
 861              		.cfi_offset 4, -8
 862              		.cfi_offset 14, -4
 863 0002 8AB0     		sub	sp, sp, #40
 864              		.cfi_def_cfa_offset 48
 376:Core/Src/stm32f4xx_hal_msp.c ****   GPIO_InitTypeDef GPIO_InitStruct = {0};
 865              		.loc 1 376 3 is_stmt 1 view .LVU269
 866              		.loc 1 376 20 is_stmt 0 view .LVU270
 867 0004 0023     		movs	r3, #0
 868 0006 0593     		str	r3, [sp, #20]
 869 0008 0693     		str	r3, [sp, #24]
 870 000a 0793     		str	r3, [sp, #28]
 871 000c 0893     		str	r3, [sp, #32]
 872 000e 0993     		str	r3, [sp, #36]
 377:Core/Src/stm32f4xx_hal_msp.c ****   if(huart->Instance==USART1)
 873              		.loc 1 377 3 is_stmt 1 view .LVU271
 874              		.loc 1 377 11 is_stmt 0 view .LVU272
 875 0010 0368     		ldr	r3, [r0]
 876              		.loc 1 377 5 view .LVU273
 877 0012 2B4A     		ldr	r2, .L58
 878 0014 9342     		cmp	r3, r2
 879 0016 04D0     		beq	.L56
 378:Core/Src/stm32f4xx_hal_msp.c ****   {
 379:Core/Src/stm32f4xx_hal_msp.c ****   /* USER CODE BEGIN USART1_MspInit 0 */
 380:Core/Src/stm32f4xx_hal_msp.c **** 
 381:Core/Src/stm32f4xx_hal_msp.c ****   /* USER CODE END USART1_MspInit 0 */
 382:Core/Src/stm32f4xx_hal_msp.c ****     /* Peripheral clock enable */
 383:Core/Src/stm32f4xx_hal_msp.c ****     __HAL_RCC_USART1_CLK_ENABLE();
 384:Core/Src/stm32f4xx_hal_msp.c **** 
 385:Core/Src/stm32f4xx_hal_msp.c ****     __HAL_RCC_GPIOA_CLK_ENABLE();
 386:Core/Src/stm32f4xx_hal_msp.c ****     /**USART1 GPIO Configuration
 387:Core/Src/stm32f4xx_hal_msp.c ****     PA9     ------> USART1_TX
 388:Core/Src/stm32f4xx_hal_msp.c ****     PA10     ------> USART1_RX
 389:Core/Src/stm32f4xx_hal_msp.c ****     */
 390:Core/Src/stm32f4xx_hal_msp.c ****     GPIO_InitStruct.Pin = GPIO_PIN_9|GPIO_PIN_10;
 391:Core/Src/stm32f4xx_hal_msp.c ****     GPIO_InitStruct.Mode = GPIO_MODE_AF_PP;
 392:Core/Src/stm32f4xx_hal_msp.c ****     GPIO_InitStruct.Pull = GPIO_NOPULL;
 393:Core/Src/stm32f4xx_hal_msp.c ****     GPIO_InitStruct.Speed = GPIO_SPEED_FREQ_VERY_HIGH;
 394:Core/Src/stm32f4xx_hal_msp.c ****     GPIO_InitStruct.Alternate = GPIO_AF7_USART1;
 395:Core/Src/stm32f4xx_hal_msp.c ****     HAL_GPIO_Init(GPIOA, &GPIO_InitStruct);
 396:Core/Src/stm32f4xx_hal_msp.c **** 
 397:Core/Src/stm32f4xx_hal_msp.c ****     /* USART1 interrupt Init */
 398:Core/Src/stm32f4xx_hal_msp.c ****     HAL_NVIC_SetPriority(USART1_IRQn, 0, 0);
 399:Core/Src/stm32f4xx_hal_msp.c ****     HAL_NVIC_EnableIRQ(USART1_IRQn);
 400:Core/Src/stm32f4xx_hal_msp.c ****   /* USER CODE BEGIN USART1_MspInit 1 */
 401:Core/Src/stm32f4xx_hal_msp.c **** 
 402:Core/Src/stm32f4xx_hal_msp.c ****   /* USER CODE END USART1_MspInit 1 */
 403:Core/Src/stm32f4xx_hal_msp.c ****   }
 404:Core/Src/stm32f4xx_hal_msp.c ****   else if(huart->Instance==USART2)
 880              		.loc 1 404 8 is_stmt 1 view .LVU274
 881              		.loc 1 404 10 is_stmt 0 view .LVU275
 882 0018 2A4A     		ldr	r2, .L58+4
 883 001a 9342     		cmp	r3, r2
 884 001c 2DD0     		beq	.L57
 885              	.LVL46:
 886              	.L52:
ARM GAS  C:\Users\pc\AppData\Local\Temp\ccttY3Fi.s 			page 27


 405:Core/Src/stm32f4xx_hal_msp.c ****   {
 406:Core/Src/stm32f4xx_hal_msp.c ****   /* USER CODE BEGIN USART2_MspInit 0 */
 407:Core/Src/stm32f4xx_hal_msp.c **** 
 408:Core/Src/stm32f4xx_hal_msp.c ****   /* USER CODE END USART2_MspInit 0 */
 409:Core/Src/stm32f4xx_hal_msp.c ****     /* Peripheral clock enable */
 410:Core/Src/stm32f4xx_hal_msp.c ****     __HAL_RCC_USART2_CLK_ENABLE();
 411:Core/Src/stm32f4xx_hal_msp.c **** 
 412:Core/Src/stm32f4xx_hal_msp.c ****     __HAL_RCC_GPIOA_CLK_ENABLE();
 413:Core/Src/stm32f4xx_hal_msp.c ****     /**USART2 GPIO Configuration
 414:Core/Src/stm32f4xx_hal_msp.c ****     PA2     ------> USART2_TX
 415:Core/Src/stm32f4xx_hal_msp.c ****     PA3     ------> USART2_RX
 416:Core/Src/stm32f4xx_hal_msp.c ****     */
 417:Core/Src/stm32f4xx_hal_msp.c ****     GPIO_InitStruct.Pin = GPIO_PIN_2|GPIO_PIN_3;
 418:Core/Src/stm32f4xx_hal_msp.c ****     GPIO_InitStruct.Mode = GPIO_MODE_AF_PP;
 419:Core/Src/stm32f4xx_hal_msp.c ****     GPIO_InitStruct.Pull = GPIO_NOPULL;
 420:Core/Src/stm32f4xx_hal_msp.c ****     GPIO_InitStruct.Speed = GPIO_SPEED_FREQ_VERY_HIGH;
 421:Core/Src/stm32f4xx_hal_msp.c ****     GPIO_InitStruct.Alternate = GPIO_AF7_USART2;
 422:Core/Src/stm32f4xx_hal_msp.c ****     HAL_GPIO_Init(GPIOA, &GPIO_InitStruct);
 423:Core/Src/stm32f4xx_hal_msp.c **** 
 424:Core/Src/stm32f4xx_hal_msp.c ****   /* USER CODE BEGIN USART2_MspInit 1 */
 425:Core/Src/stm32f4xx_hal_msp.c **** 
 426:Core/Src/stm32f4xx_hal_msp.c ****   /* USER CODE END USART2_MspInit 1 */
 427:Core/Src/stm32f4xx_hal_msp.c ****   }
 428:Core/Src/stm32f4xx_hal_msp.c **** 
 429:Core/Src/stm32f4xx_hal_msp.c **** }
 887              		.loc 1 429 1 view .LVU276
 888 001e 0AB0     		add	sp, sp, #40
 889              		.cfi_remember_state
 890              		.cfi_def_cfa_offset 8
 891              		@ sp needed
 892 0020 10BD     		pop	{r4, pc}
 893              	.LVL47:
 894              	.L56:
 895              		.cfi_restore_state
 383:Core/Src/stm32f4xx_hal_msp.c **** 
 896              		.loc 1 383 5 is_stmt 1 view .LVU277
 897              	.LBB10:
 383:Core/Src/stm32f4xx_hal_msp.c **** 
 898              		.loc 1 383 5 view .LVU278
 899 0022 0024     		movs	r4, #0
 900 0024 0194     		str	r4, [sp, #4]
 383:Core/Src/stm32f4xx_hal_msp.c **** 
 901              		.loc 1 383 5 view .LVU279
 902 0026 284B     		ldr	r3, .L58+8
 903 0028 5A6C     		ldr	r2, [r3, #68]
 904 002a 42F01002 		orr	r2, r2, #16
 905 002e 5A64     		str	r2, [r3, #68]
 383:Core/Src/stm32f4xx_hal_msp.c **** 
 906              		.loc 1 383 5 view .LVU280
 907 0030 5A6C     		ldr	r2, [r3, #68]
 908 0032 02F01002 		and	r2, r2, #16
 909 0036 0192     		str	r2, [sp, #4]
 383:Core/Src/stm32f4xx_hal_msp.c **** 
 910              		.loc 1 383 5 view .LVU281
 911 0038 019A     		ldr	r2, [sp, #4]
 912              	.LBE10:
 383:Core/Src/stm32f4xx_hal_msp.c **** 
ARM GAS  C:\Users\pc\AppData\Local\Temp\ccttY3Fi.s 			page 28


 913              		.loc 1 383 5 view .LVU282
 385:Core/Src/stm32f4xx_hal_msp.c ****     /**USART1 GPIO Configuration
 914              		.loc 1 385 5 view .LVU283
 915              	.LBB11:
 385:Core/Src/stm32f4xx_hal_msp.c ****     /**USART1 GPIO Configuration
 916              		.loc 1 385 5 view .LVU284
 917 003a 0294     		str	r4, [sp, #8]
 385:Core/Src/stm32f4xx_hal_msp.c ****     /**USART1 GPIO Configuration
 918              		.loc 1 385 5 view .LVU285
 919 003c 1A6B     		ldr	r2, [r3, #48]
 920 003e 42F00102 		orr	r2, r2, #1
 921 0042 1A63     		str	r2, [r3, #48]
 385:Core/Src/stm32f4xx_hal_msp.c ****     /**USART1 GPIO Configuration
 922              		.loc 1 385 5 view .LVU286
 923 0044 1B6B     		ldr	r3, [r3, #48]
 924 0046 03F00103 		and	r3, r3, #1
 925 004a 0293     		str	r3, [sp, #8]
 385:Core/Src/stm32f4xx_hal_msp.c ****     /**USART1 GPIO Configuration
 926              		.loc 1 385 5 view .LVU287
 927 004c 029B     		ldr	r3, [sp, #8]
 928              	.LBE11:
 385:Core/Src/stm32f4xx_hal_msp.c ****     /**USART1 GPIO Configuration
 929              		.loc 1 385 5 view .LVU288
 390:Core/Src/stm32f4xx_hal_msp.c ****     GPIO_InitStruct.Mode = GPIO_MODE_AF_PP;
 930              		.loc 1 390 5 view .LVU289
 390:Core/Src/stm32f4xx_hal_msp.c ****     GPIO_InitStruct.Mode = GPIO_MODE_AF_PP;
 931              		.loc 1 390 25 is_stmt 0 view .LVU290
 932 004e 4FF4C063 		mov	r3, #1536
 933 0052 0593     		str	r3, [sp, #20]
 391:Core/Src/stm32f4xx_hal_msp.c ****     GPIO_InitStruct.Pull = GPIO_NOPULL;
 934              		.loc 1 391 5 is_stmt 1 view .LVU291
 391:Core/Src/stm32f4xx_hal_msp.c ****     GPIO_InitStruct.Pull = GPIO_NOPULL;
 935              		.loc 1 391 26 is_stmt 0 view .LVU292
 936 0054 0223     		movs	r3, #2
 937 0056 0693     		str	r3, [sp, #24]
 392:Core/Src/stm32f4xx_hal_msp.c ****     GPIO_InitStruct.Speed = GPIO_SPEED_FREQ_VERY_HIGH;
 938              		.loc 1 392 5 is_stmt 1 view .LVU293
 393:Core/Src/stm32f4xx_hal_msp.c ****     GPIO_InitStruct.Alternate = GPIO_AF7_USART1;
 939              		.loc 1 393 5 view .LVU294
 393:Core/Src/stm32f4xx_hal_msp.c ****     GPIO_InitStruct.Alternate = GPIO_AF7_USART1;
 940              		.loc 1 393 27 is_stmt 0 view .LVU295
 941 0058 0323     		movs	r3, #3
 942 005a 0893     		str	r3, [sp, #32]
 394:Core/Src/stm32f4xx_hal_msp.c ****     HAL_GPIO_Init(GPIOA, &GPIO_InitStruct);
 943              		.loc 1 394 5 is_stmt 1 view .LVU296
 394:Core/Src/stm32f4xx_hal_msp.c ****     HAL_GPIO_Init(GPIOA, &GPIO_InitStruct);
 944              		.loc 1 394 31 is_stmt 0 view .LVU297
 945 005c 0723     		movs	r3, #7
 946 005e 0993     		str	r3, [sp, #36]
 395:Core/Src/stm32f4xx_hal_msp.c **** 
 947              		.loc 1 395 5 is_stmt 1 view .LVU298
 948 0060 05A9     		add	r1, sp, #20
 949 0062 1A48     		ldr	r0, .L58+12
 950              	.LVL48:
 395:Core/Src/stm32f4xx_hal_msp.c **** 
 951              		.loc 1 395 5 is_stmt 0 view .LVU299
 952 0064 FFF7FEFF 		bl	HAL_GPIO_Init
ARM GAS  C:\Users\pc\AppData\Local\Temp\ccttY3Fi.s 			page 29


 953              	.LVL49:
 398:Core/Src/stm32f4xx_hal_msp.c ****     HAL_NVIC_EnableIRQ(USART1_IRQn);
 954              		.loc 1 398 5 is_stmt 1 view .LVU300
 955 0068 2246     		mov	r2, r4
 956 006a 2146     		mov	r1, r4
 957 006c 2520     		movs	r0, #37
 958 006e FFF7FEFF 		bl	HAL_NVIC_SetPriority
 959              	.LVL50:
 399:Core/Src/stm32f4xx_hal_msp.c ****   /* USER CODE BEGIN USART1_MspInit 1 */
 960              		.loc 1 399 5 view .LVU301
 961 0072 2520     		movs	r0, #37
 962 0074 FFF7FEFF 		bl	HAL_NVIC_EnableIRQ
 963              	.LVL51:
 964 0078 D1E7     		b	.L52
 965              	.LVL52:
 966              	.L57:
 410:Core/Src/stm32f4xx_hal_msp.c **** 
 967              		.loc 1 410 5 view .LVU302
 968              	.LBB12:
 410:Core/Src/stm32f4xx_hal_msp.c **** 
 969              		.loc 1 410 5 view .LVU303
 970 007a 0021     		movs	r1, #0
 971 007c 0391     		str	r1, [sp, #12]
 410:Core/Src/stm32f4xx_hal_msp.c **** 
 972              		.loc 1 410 5 view .LVU304
 973 007e 124B     		ldr	r3, .L58+8
 974 0080 1A6C     		ldr	r2, [r3, #64]
 975 0082 42F40032 		orr	r2, r2, #131072
 976 0086 1A64     		str	r2, [r3, #64]
 410:Core/Src/stm32f4xx_hal_msp.c **** 
 977              		.loc 1 410 5 view .LVU305
 978 0088 1A6C     		ldr	r2, [r3, #64]
 979 008a 02F40032 		and	r2, r2, #131072
 980 008e 0392     		str	r2, [sp, #12]
 410:Core/Src/stm32f4xx_hal_msp.c **** 
 981              		.loc 1 410 5 view .LVU306
 982 0090 039A     		ldr	r2, [sp, #12]
 983              	.LBE12:
 410:Core/Src/stm32f4xx_hal_msp.c **** 
 984              		.loc 1 410 5 view .LVU307
 412:Core/Src/stm32f4xx_hal_msp.c ****     /**USART2 GPIO Configuration
 985              		.loc 1 412 5 view .LVU308
 986              	.LBB13:
 412:Core/Src/stm32f4xx_hal_msp.c ****     /**USART2 GPIO Configuration
 987              		.loc 1 412 5 view .LVU309
 988 0092 0491     		str	r1, [sp, #16]
 412:Core/Src/stm32f4xx_hal_msp.c ****     /**USART2 GPIO Configuration
 989              		.loc 1 412 5 view .LVU310
 990 0094 1A6B     		ldr	r2, [r3, #48]
 991 0096 42F00102 		orr	r2, r2, #1
 992 009a 1A63     		str	r2, [r3, #48]
 412:Core/Src/stm32f4xx_hal_msp.c ****     /**USART2 GPIO Configuration
 993              		.loc 1 412 5 view .LVU311
 994 009c 1B6B     		ldr	r3, [r3, #48]
 995 009e 03F00103 		and	r3, r3, #1
 996 00a2 0493     		str	r3, [sp, #16]
 412:Core/Src/stm32f4xx_hal_msp.c ****     /**USART2 GPIO Configuration
ARM GAS  C:\Users\pc\AppData\Local\Temp\ccttY3Fi.s 			page 30


 997              		.loc 1 412 5 view .LVU312
 998 00a4 049B     		ldr	r3, [sp, #16]
 999              	.LBE13:
 412:Core/Src/stm32f4xx_hal_msp.c ****     /**USART2 GPIO Configuration
 1000              		.loc 1 412 5 view .LVU313
 417:Core/Src/stm32f4xx_hal_msp.c ****     GPIO_InitStruct.Mode = GPIO_MODE_AF_PP;
 1001              		.loc 1 417 5 view .LVU314
 417:Core/Src/stm32f4xx_hal_msp.c ****     GPIO_InitStruct.Mode = GPIO_MODE_AF_PP;
 1002              		.loc 1 417 25 is_stmt 0 view .LVU315
 1003 00a6 0C23     		movs	r3, #12
 1004 00a8 0593     		str	r3, [sp, #20]
 418:Core/Src/stm32f4xx_hal_msp.c ****     GPIO_InitStruct.Pull = GPIO_NOPULL;
 1005              		.loc 1 418 5 is_stmt 1 view .LVU316
 418:Core/Src/stm32f4xx_hal_msp.c ****     GPIO_InitStruct.Pull = GPIO_NOPULL;
 1006              		.loc 1 418 26 is_stmt 0 view .LVU317
 1007 00aa 0223     		movs	r3, #2
 1008 00ac 0693     		str	r3, [sp, #24]
 419:Core/Src/stm32f4xx_hal_msp.c ****     GPIO_InitStruct.Speed = GPIO_SPEED_FREQ_VERY_HIGH;
 1009              		.loc 1 419 5 is_stmt 1 view .LVU318
 420:Core/Src/stm32f4xx_hal_msp.c ****     GPIO_InitStruct.Alternate = GPIO_AF7_USART2;
 1010              		.loc 1 420 5 view .LVU319
 420:Core/Src/stm32f4xx_hal_msp.c ****     GPIO_InitStruct.Alternate = GPIO_AF7_USART2;
 1011              		.loc 1 420 27 is_stmt 0 view .LVU320
 1012 00ae 0323     		movs	r3, #3
 1013 00b0 0893     		str	r3, [sp, #32]
 421:Core/Src/stm32f4xx_hal_msp.c ****     HAL_GPIO_Init(GPIOA, &GPIO_InitStruct);
 1014              		.loc 1 421 5 is_stmt 1 view .LVU321
 421:Core/Src/stm32f4xx_hal_msp.c ****     HAL_GPIO_Init(GPIOA, &GPIO_InitStruct);
 1015              		.loc 1 421 31 is_stmt 0 view .LVU322
 1016 00b2 0723     		movs	r3, #7
 1017 00b4 0993     		str	r3, [sp, #36]
 422:Core/Src/stm32f4xx_hal_msp.c **** 
 1018              		.loc 1 422 5 is_stmt 1 view .LVU323
 1019 00b6 05A9     		add	r1, sp, #20
 1020 00b8 0448     		ldr	r0, .L58+12
 1021              	.LVL53:
 422:Core/Src/stm32f4xx_hal_msp.c **** 
 1022              		.loc 1 422 5 is_stmt 0 view .LVU324
 1023 00ba FFF7FEFF 		bl	HAL_GPIO_Init
 1024              	.LVL54:
 1025              		.loc 1 429 1 view .LVU325
 1026 00be AEE7     		b	.L52
 1027              	.L59:
 1028              		.align	2
 1029              	.L58:
 1030 00c0 00100140 		.word	1073811456
 1031 00c4 00440040 		.word	1073759232
 1032 00c8 00380240 		.word	1073887232
 1033 00cc 00000240 		.word	1073872896
 1034              		.cfi_endproc
 1035              	.LFE136:
 1037              		.section	.text.HAL_UART_MspDeInit,"ax",%progbits
 1038              		.align	1
 1039              		.global	HAL_UART_MspDeInit
 1040              		.syntax unified
 1041              		.thumb
 1042              		.thumb_func
ARM GAS  C:\Users\pc\AppData\Local\Temp\ccttY3Fi.s 			page 31


 1044              	HAL_UART_MspDeInit:
 1045              	.LVL55:
 1046              	.LFB137:
 430:Core/Src/stm32f4xx_hal_msp.c **** 
 431:Core/Src/stm32f4xx_hal_msp.c **** /**
 432:Core/Src/stm32f4xx_hal_msp.c **** * @brief UART MSP De-Initialization
 433:Core/Src/stm32f4xx_hal_msp.c **** * This function freeze the hardware resources used in this example
 434:Core/Src/stm32f4xx_hal_msp.c **** * @param huart: UART handle pointer
 435:Core/Src/stm32f4xx_hal_msp.c **** * @retval None
 436:Core/Src/stm32f4xx_hal_msp.c **** */
 437:Core/Src/stm32f4xx_hal_msp.c **** void HAL_UART_MspDeInit(UART_HandleTypeDef* huart)
 438:Core/Src/stm32f4xx_hal_msp.c **** {
 1047              		.loc 1 438 1 is_stmt 1 view -0
 1048              		.cfi_startproc
 1049              		@ args = 0, pretend = 0, frame = 0
 1050              		@ frame_needed = 0, uses_anonymous_args = 0
 1051              		.loc 1 438 1 is_stmt 0 view .LVU327
 1052 0000 08B5     		push	{r3, lr}
 1053              		.cfi_def_cfa_offset 8
 1054              		.cfi_offset 3, -8
 1055              		.cfi_offset 14, -4
 439:Core/Src/stm32f4xx_hal_msp.c ****   if(huart->Instance==USART1)
 1056              		.loc 1 439 3 is_stmt 1 view .LVU328
 1057              		.loc 1 439 11 is_stmt 0 view .LVU329
 1058 0002 0368     		ldr	r3, [r0]
 1059              		.loc 1 439 5 view .LVU330
 1060 0004 104A     		ldr	r2, .L66
 1061 0006 9342     		cmp	r3, r2
 1062 0008 03D0     		beq	.L64
 440:Core/Src/stm32f4xx_hal_msp.c ****   {
 441:Core/Src/stm32f4xx_hal_msp.c ****   /* USER CODE BEGIN USART1_MspDeInit 0 */
 442:Core/Src/stm32f4xx_hal_msp.c **** 
 443:Core/Src/stm32f4xx_hal_msp.c ****   /* USER CODE END USART1_MspDeInit 0 */
 444:Core/Src/stm32f4xx_hal_msp.c ****     /* Peripheral clock disable */
 445:Core/Src/stm32f4xx_hal_msp.c ****     __HAL_RCC_USART1_CLK_DISABLE();
 446:Core/Src/stm32f4xx_hal_msp.c **** 
 447:Core/Src/stm32f4xx_hal_msp.c ****     /**USART1 GPIO Configuration
 448:Core/Src/stm32f4xx_hal_msp.c ****     PA9     ------> USART1_TX
 449:Core/Src/stm32f4xx_hal_msp.c ****     PA10     ------> USART1_RX
 450:Core/Src/stm32f4xx_hal_msp.c ****     */
 451:Core/Src/stm32f4xx_hal_msp.c ****     HAL_GPIO_DeInit(GPIOA, GPIO_PIN_9|GPIO_PIN_10);
 452:Core/Src/stm32f4xx_hal_msp.c **** 
 453:Core/Src/stm32f4xx_hal_msp.c ****     /* USART1 interrupt DeInit */
 454:Core/Src/stm32f4xx_hal_msp.c ****     HAL_NVIC_DisableIRQ(USART1_IRQn);
 455:Core/Src/stm32f4xx_hal_msp.c ****   /* USER CODE BEGIN USART1_MspDeInit 1 */
 456:Core/Src/stm32f4xx_hal_msp.c **** 
 457:Core/Src/stm32f4xx_hal_msp.c ****   /* USER CODE END USART1_MspDeInit 1 */
 458:Core/Src/stm32f4xx_hal_msp.c ****   }
 459:Core/Src/stm32f4xx_hal_msp.c ****   else if(huart->Instance==USART2)
 1063              		.loc 1 459 8 is_stmt 1 view .LVU331
 1064              		.loc 1 459 10 is_stmt 0 view .LVU332
 1065 000a 104A     		ldr	r2, .L66+4
 1066 000c 9342     		cmp	r3, r2
 1067 000e 0FD0     		beq	.L65
 1068              	.LVL56:
 1069              	.L60:
 460:Core/Src/stm32f4xx_hal_msp.c ****   {
ARM GAS  C:\Users\pc\AppData\Local\Temp\ccttY3Fi.s 			page 32


 461:Core/Src/stm32f4xx_hal_msp.c ****   /* USER CODE BEGIN USART2_MspDeInit 0 */
 462:Core/Src/stm32f4xx_hal_msp.c **** 
 463:Core/Src/stm32f4xx_hal_msp.c ****   /* USER CODE END USART2_MspDeInit 0 */
 464:Core/Src/stm32f4xx_hal_msp.c ****     /* Peripheral clock disable */
 465:Core/Src/stm32f4xx_hal_msp.c ****     __HAL_RCC_USART2_CLK_DISABLE();
 466:Core/Src/stm32f4xx_hal_msp.c **** 
 467:Core/Src/stm32f4xx_hal_msp.c ****     /**USART2 GPIO Configuration
 468:Core/Src/stm32f4xx_hal_msp.c ****     PA2     ------> USART2_TX
 469:Core/Src/stm32f4xx_hal_msp.c ****     PA3     ------> USART2_RX
 470:Core/Src/stm32f4xx_hal_msp.c ****     */
 471:Core/Src/stm32f4xx_hal_msp.c ****     HAL_GPIO_DeInit(GPIOA, GPIO_PIN_2|GPIO_PIN_3);
 472:Core/Src/stm32f4xx_hal_msp.c **** 
 473:Core/Src/stm32f4xx_hal_msp.c ****   /* USER CODE BEGIN USART2_MspDeInit 1 */
 474:Core/Src/stm32f4xx_hal_msp.c **** 
 475:Core/Src/stm32f4xx_hal_msp.c ****   /* USER CODE END USART2_MspDeInit 1 */
 476:Core/Src/stm32f4xx_hal_msp.c ****   }
 477:Core/Src/stm32f4xx_hal_msp.c **** 
 478:Core/Src/stm32f4xx_hal_msp.c **** }
 1070              		.loc 1 478 1 view .LVU333
 1071 0010 08BD     		pop	{r3, pc}
 1072              	.LVL57:
 1073              	.L64:
 445:Core/Src/stm32f4xx_hal_msp.c **** 
 1074              		.loc 1 445 5 is_stmt 1 view .LVU334
 1075 0012 02F59432 		add	r2, r2, #75776
 1076 0016 536C     		ldr	r3, [r2, #68]
 1077 0018 23F01003 		bic	r3, r3, #16
 1078 001c 5364     		str	r3, [r2, #68]
 451:Core/Src/stm32f4xx_hal_msp.c **** 
 1079              		.loc 1 451 5 view .LVU335
 1080 001e 4FF4C061 		mov	r1, #1536
 1081 0022 0B48     		ldr	r0, .L66+8
 1082              	.LVL58:
 451:Core/Src/stm32f4xx_hal_msp.c **** 
 1083              		.loc 1 451 5 is_stmt 0 view .LVU336
 1084 0024 FFF7FEFF 		bl	HAL_GPIO_DeInit
 1085              	.LVL59:
 454:Core/Src/stm32f4xx_hal_msp.c ****   /* USER CODE BEGIN USART1_MspDeInit 1 */
 1086              		.loc 1 454 5 is_stmt 1 view .LVU337
 1087 0028 2520     		movs	r0, #37
 1088 002a FFF7FEFF 		bl	HAL_NVIC_DisableIRQ
 1089              	.LVL60:
 1090 002e EFE7     		b	.L60
 1091              	.LVL61:
 1092              	.L65:
 465:Core/Src/stm32f4xx_hal_msp.c **** 
 1093              		.loc 1 465 5 view .LVU338
 1094 0030 02F5FA32 		add	r2, r2, #128000
 1095 0034 136C     		ldr	r3, [r2, #64]
 1096 0036 23F40033 		bic	r3, r3, #131072
 1097 003a 1364     		str	r3, [r2, #64]
 471:Core/Src/stm32f4xx_hal_msp.c **** 
 1098              		.loc 1 471 5 view .LVU339
 1099 003c 0C21     		movs	r1, #12
 1100 003e 0448     		ldr	r0, .L66+8
 1101              	.LVL62:
 471:Core/Src/stm32f4xx_hal_msp.c **** 
ARM GAS  C:\Users\pc\AppData\Local\Temp\ccttY3Fi.s 			page 33


 1102              		.loc 1 471 5 is_stmt 0 view .LVU340
 1103 0040 FFF7FEFF 		bl	HAL_GPIO_DeInit
 1104              	.LVL63:
 1105              		.loc 1 478 1 view .LVU341
 1106 0044 E4E7     		b	.L60
 1107              	.L67:
 1108 0046 00BF     		.align	2
 1109              	.L66:
 1110 0048 00100140 		.word	1073811456
 1111 004c 00440040 		.word	1073759232
 1112 0050 00000240 		.word	1073872896
 1113              		.cfi_endproc
 1114              	.LFE137:
 1116              		.text
 1117              	.Letext0:
 1118              		.file 2 "Drivers/CMSIS/Device/ST/STM32F4xx/Include/stm32f446xx.h"
 1119              		.file 3 "c:\\users\\pc\\appdata\\roaming\\code\\user\\globalstorage\\bmd.stm32-for-vscode\\@xpack-
 1120              		.file 4 "c:\\users\\pc\\appdata\\roaming\\code\\user\\globalstorage\\bmd.stm32-for-vscode\\@xpack-
 1121              		.file 5 "Drivers/STM32F4xx_HAL_Driver/Inc/stm32f4xx_hal_def.h"
 1122              		.file 6 "Drivers/STM32F4xx_HAL_Driver/Inc/stm32f4xx_hal_gpio.h"
 1123              		.file 7 "Drivers/STM32F4xx_HAL_Driver/Inc/stm32f4xx_hal_dma.h"
 1124              		.file 8 "Drivers/STM32F4xx_HAL_Driver/Inc/stm32f4xx_hal_i2c.h"
 1125              		.file 9 "Drivers/STM32F4xx_HAL_Driver/Inc/stm32f4xx_hal_tim.h"
 1126              		.file 10 "Drivers/STM32F4xx_HAL_Driver/Inc/stm32f4xx_hal_uart.h"
 1127              		.file 11 "Drivers/STM32F4xx_HAL_Driver/Inc/stm32f4xx_hal_cortex.h"
 1128              		.file 12 "Core/Inc/main.h"
ARM GAS  C:\Users\pc\AppData\Local\Temp\ccttY3Fi.s 			page 34


DEFINED SYMBOLS
                            *ABS*:0000000000000000 stm32f4xx_hal_msp.c
C:\Users\pc\AppData\Local\Temp\ccttY3Fi.s:21     .text.HAL_MspInit:0000000000000000 $t
C:\Users\pc\AppData\Local\Temp\ccttY3Fi.s:27     .text.HAL_MspInit:0000000000000000 HAL_MspInit
C:\Users\pc\AppData\Local\Temp\ccttY3Fi.s:84     .text.HAL_MspInit:000000000000003c $d
C:\Users\pc\AppData\Local\Temp\ccttY3Fi.s:89     .text.HAL_I2C_MspInit:0000000000000000 $t
C:\Users\pc\AppData\Local\Temp\ccttY3Fi.s:95     .text.HAL_I2C_MspInit:0000000000000000 HAL_I2C_MspInit
C:\Users\pc\AppData\Local\Temp\ccttY3Fi.s:199    .text.HAL_I2C_MspInit:0000000000000064 $d
C:\Users\pc\AppData\Local\Temp\ccttY3Fi.s:206    .text.HAL_I2C_MspDeInit:0000000000000000 $t
C:\Users\pc\AppData\Local\Temp\ccttY3Fi.s:212    .text.HAL_I2C_MspDeInit:0000000000000000 HAL_I2C_MspDeInit
C:\Users\pc\AppData\Local\Temp\ccttY3Fi.s:256    .text.HAL_I2C_MspDeInit:0000000000000030 $d
C:\Users\pc\AppData\Local\Temp\ccttY3Fi.s:263    .text.HAL_TIM_Base_MspInit:0000000000000000 $t
C:\Users\pc\AppData\Local\Temp\ccttY3Fi.s:269    .text.HAL_TIM_Base_MspInit:0000000000000000 HAL_TIM_Base_MspInit
C:\Users\pc\AppData\Local\Temp\ccttY3Fi.s:598    .text.HAL_TIM_Base_MspInit:0000000000000150 $d
C:\Users\pc\AppData\Local\Temp\ccttY3Fi.s:612    .text.HAL_TIM_MspPostInit:0000000000000000 $t
C:\Users\pc\AppData\Local\Temp\ccttY3Fi.s:618    .text.HAL_TIM_MspPostInit:0000000000000000 HAL_TIM_MspPostInit
C:\Users\pc\AppData\Local\Temp\ccttY3Fi.s:746    .text.HAL_TIM_MspPostInit:0000000000000080 $d
C:\Users\pc\AppData\Local\Temp\ccttY3Fi.s:753    .text.HAL_TIM_Base_MspDeInit:0000000000000000 $t
C:\Users\pc\AppData\Local\Temp\ccttY3Fi.s:759    .text.HAL_TIM_Base_MspDeInit:0000000000000000 HAL_TIM_Base_MspDeInit
C:\Users\pc\AppData\Local\Temp\ccttY3Fi.s:839    .text.HAL_TIM_Base_MspDeInit:0000000000000058 $d
C:\Users\pc\AppData\Local\Temp\ccttY3Fi.s:845    .text.HAL_UART_MspInit:0000000000000000 $t
C:\Users\pc\AppData\Local\Temp\ccttY3Fi.s:851    .text.HAL_UART_MspInit:0000000000000000 HAL_UART_MspInit
C:\Users\pc\AppData\Local\Temp\ccttY3Fi.s:1030   .text.HAL_UART_MspInit:00000000000000c0 $d
C:\Users\pc\AppData\Local\Temp\ccttY3Fi.s:1038   .text.HAL_UART_MspDeInit:0000000000000000 $t
C:\Users\pc\AppData\Local\Temp\ccttY3Fi.s:1044   .text.HAL_UART_MspDeInit:0000000000000000 HAL_UART_MspDeInit
C:\Users\pc\AppData\Local\Temp\ccttY3Fi.s:1110   .text.HAL_UART_MspDeInit:0000000000000048 $d

UNDEFINED SYMBOLS
HAL_NVIC_SetPriorityGrouping
HAL_GPIO_Init
HAL_GPIO_DeInit
HAL_DMA_Init
Error_Handler
hdma_tim2_ch2_ch4
hdma_tim2_up_ch3
hdma_tim3_ch2
hdma_tim3_ch1_trig
HAL_DMA_DeInit
HAL_NVIC_SetPriority
HAL_NVIC_EnableIRQ
HAL_NVIC_DisableIRQ
